Certificate:
    Data:
        Version: 3 (0x2)
        Serial Number: 1 (0x1)
        Signature Algorithm: sha1WithRSAEncryption
        Issuer: C=BA, ST=RS, L=Banja Luka, O=Elektrotehnicki fakultet, O=Univerzitet u Banjoj Luci, OU=ETF, CN=CA/emailAddress=ca@mail.com/title=Prof.
        Validity
            Not Before: Mar  9 17:16:03 2025 GMT
            Not After : Mar  7 17:16:03 2035 GMT
        Subject: C=BA, ST=RS, O=Elektrotehnicki fakultet, OU=ETF, CN=client1/emailAddress=client1@mail.com
        Subject Public Key Info:
            Public Key Algorithm: rsaEncryption
                Public-Key: (4096 bit)
                Modulus:
                    00:cc:0b:b5:8f:8d:8b:58:8a:8e:e4:5d:a4:31:db:
                    83:fe:4f:1b:4c:fd:f0:ae:d5:3a:e7:80:a9:3c:a3:
                    72:38:00:03:a4:37:02:36:c6:fd:34:b4:81:d9:19:
                    1f:d4:f7:e2:3a:cd:aa:cf:8b:f7:e1:61:41:65:34:
                    62:e5:c7:ad:7f:38:dc:76:b4:9b:7c:e3:f0:32:03:
                    2b:49:0a:79:e1:0a:d1:47:03:61:ff:2f:01:35:d8:
                    bf:70:0d:1c:5c:03:64:e2:ef:ca:7b:d1:e0:d2:da:
                    51:da:c7:2c:8e:af:d9:a0:1c:6a:8f:72:54:b4:4e:
                    b4:c9:57:e8:f0:c4:66:bc:2a:88:de:09:b1:8c:04:
                    a7:0b:6e:1d:ca:02:22:f5:8f:05:fe:bc:6d:b4:12:
                    a5:0b:a3:7f:f4:1a:73:3c:c6:75:fa:c3:7e:cf:bf:
                    b4:39:45:13:e9:c1:c3:ac:7f:5a:12:72:93:ba:46:
                    46:24:10:47:55:3c:44:e3:0c:ae:bf:3b:f3:8e:c9:
                    b7:1f:db:da:bf:5e:d8:9f:7f:a7:a1:6a:ef:05:45:
                    3d:e1:f9:ec:b9:7f:fc:fe:a9:95:62:34:39:04:02:
                    cd:b0:b2:32:3b:29:7d:9e:d2:5e:71:6a:40:d3:23:
                    ba:7f:88:be:b5:4c:c8:7f:8f:62:2b:31:5f:cd:4e:
                    10:f1:0a:d5:2e:b2:16:5b:66:7f:6c:25:fd:ff:60:
                    b2:d6:e5:10:fe:41:5d:83:47:2e:c1:d4:9c:75:ad:
                    19:81:89:4d:c5:6e:e9:85:30:a0:a2:20:7e:be:0a:
                    64:78:73:ba:f8:3c:a3:c3:fe:a5:85:6e:9a:47:32:
                    25:9a:48:0b:78:3d:17:08:5b:17:13:41:56:58:f7:
                    cb:32:c3:95:f7:a0:a6:f4:34:53:88:e2:3c:49:8c:
                    93:25:63:b6:64:12:52:ec:51:f1:ca:78:e6:9b:a4:
                    7c:1e:e3:3f:8b:10:34:49:ff:91:0a:80:b5:0d:db:
                    57:99:5e:29:49:35:e1:f8:22:f4:98:5c:31:92:7d:
                    4c:f0:45:c5:54:56:18:77:21:8b:c4:c4:12:85:57:
                    77:fc:4e:23:24:f4:e9:de:4d:cf:34:78:47:61:23:
                    82:35:67:8e:a2:73:f8:54:9b:43:1f:3f:82:57:52:
                    4a:e1:ff:99:53:58:e9:55:72:fe:83:15:01:6c:5f:
                    5f:60:5a:ab:89:2c:ef:67:27:5f:c8:36:97:cc:68:
                    89:08:c7:06:b6:1b:47:71:65:7f:68:0a:0b:fd:b3:
                    f2:6e:0a:df:a6:45:c5:c3:44:7a:cf:8a:05:af:f4:
                    7f:71:af:d7:af:4c:51:89:82:8d:9b:5b:45:38:e6:
                    d3:f2:7f
                Exponent: 65537 (0x10001)
        X509v3 extensions:
            X509v3 Basic Constraints: 
                CA:FALSE
            X509v3 Key Usage: 
                Digital Signature, Non Repudiation, Key Encipherment, Data Encipherment, Key Agreement
            Netscape Comment: 
                OpenSSL Generated Certificate
            X509v3 Subject Key Identifier: 
                74:BF:3A:6A:D1:F9:0C:0E:2F:35:A7:0A:0D:80:E5:B7:14:93:86:FE
            X509v3 Authority Key Identifier: 
                95:44:68:92:37:9C:A8:60:D5:DF:17:40:74:78:0A:CA:D7:CF:E5:C7
            X509v3 CRL Distribution Points: 
                Full Name:
                  URI:http://192.168.21.89/rootcrl.pem
    Signature Algorithm: sha1WithRSAEncryption
    Signature Value:
        1d:d9:1c:43:9a:11:d0:95:d4:b1:c4:8e:94:d7:0b:a1:2a:ea:
        7b:a4:6d:67:c0:7b:b9:17:b9:32:8c:07:33:5e:ac:bc:d6:09:
        de:ba:36:db:d5:a0:87:22:6d:19:c3:f8:bf:71:6f:c9:d7:2d:
        f2:12:19:0b:76:d4:93:19:62:bb:02:a5:26:4b:9c:e6:72:39:
        cb:e2:74:05:48:62:c2:b7:a4:ef:4f:0b:0c:aa:7c:ae:d2:34:
        03:04:8c:72:e9:dd:ac:57:1c:0f:83:01:7f:aa:ab:15:d1:d7:
        0b:3f:12:6c:2f:4e:d1:6c:a5:ee:9c:80:af:01:40:d2:f2:1b:
        4c:0e:72:eb:36:d5:58:02:30:5e:d8:19:04:c1:5c:9b:be:c7:
        5e:29:2d:81:e7:4c:cb:16:56:36:d0:f5:28:0a:74:36:44:0e:
        c9:f8:49:0b:bb:11:92:39:e7:74:ad:a9:bc:3a:1e:e6:c4:70:
        10:9b:c3:1d:8b:23:5d:2c:c7:6c:8c:33:70:42:c7:a1:4a:0b:
        53:bd:00:15:e0:c5:8e:a0:6d:cc:4a:cc:55:23:0f:49:f8:eb:
        ca:44:d7:c5:a5:cb:82:08:b2:f2:94:b9:84:43:e2:64:6f:2e:
        c7:21:d9:bc:aa:a9:26:a2:97:19:73:f6:2c:05:ed:02:d4:15:
        1c:30:ca:ed:e1:be:cc:a9:af:08:f9:5c:c5:21:ad:be:3c:0c:
        14:2c:f7:49:fb:e3:60:ef:fb:5f:1f:f7:6c:2b:2c:d9:26:bc:
        31:82:01:35:86:7e:34:cc:b4:bd:e0:f5:9f:e8:5d:7b:63:d1:
        2c:20:14:71:f6:d0:41:bc:82:40:bc:da:8c:d2:af:c5:4d:03:
        b4:7d:7b:e5:01:49:d7:59:e2:30:14:ea:bf:fb:7a:8e:07:05:
        bc:ab:05:89:e1:a2:5d:6d:92:87:da:49:83:af:bf:af:a2:e2:
        2e:b2:71:3f:bd:76:83:a0:10:2b:17:5d:63:ab:9b:0d:e7:a7:
        db:9a:75:f8:4a:69:cf:d7:e1:b7:04:34:9a:99:78:f3:d9:71:
        ca:30:e1:4b:ea:49:7e:0f:ea:15:e3:7f:a5:3d:49:cd:53:8e:
        ac:be:a5:fb:0f:4b:c9:e3:42:d9:99:ab:c4:9f:87:41:3d:ac:
        91:a4:ec:a8:bf:44:f9:b4:c3:5a:d8:69:9a:ef:55:79:fe:10:
        f7:b5:82:99:ba:1e:1c:a3:4a:d3:35:83:78:49:26:b9:ad:c8:
        6d:26:8e:ad:05:33:d5:11:db:7e:17:ba:92:e6:87:87:03:7d:
        5d:41:95:40:da:1e:ac:2b:0b:5e:48:f4:66:51:3c:ce:b4:dd:
        62:06:73:d5:fe:49:bb:91
-----BEGIN CERTIFICATE-----
MIIGdDCCBFygAwIBAgIBATANBgkqhkiG9w0BAQUFADCBvTELMAkGA1UEBhMCQkEx
CzAJBgNVBAgTAlJTMRMwEQYDVQQHEwpCYW5qYSBMdWthMSEwHwYDVQQKExhFbGVr
dHJvdGVobmlja2kgZmFrdWx0ZXQxIjAgBgNVBAoTGVVuaXZlcnppdGV0IHUgQmFu
am9qIEx1Y2kxDDAKBgNVBAsTA0VURjELMAkGA1UEAxMCQ0ExGjAYBgkqhkiG9w0B
CQEWC2NhQG1haWwuY29tMQ4wDAYDVQQMEwVQcm9mLjAeFw0yNTAzMDkxNzE2MDNa
Fw0zNTAzMDcxNzE2MDNaMH4xCzAJBgNVBAYTAkJBMQswCQYDVQQIEwJSUzEhMB8G
A1UEChMYRWxla3Ryb3RlaG5pY2tpIGZha3VsdGV0MQwwCgYDVQQLEwNFVEYxEDAO
BgNVBAMTB2NsaWVudDExHzAdBgkqhkiG9w0BCQEWEGNsaWVudDFAbWFpbC5jb20w
ggIiMA0GCSqGSIb3DQEBAQUAA4ICDwAwggIKAoICAQDMC7WPjYtYio7kXaQx24P+
TxtM/fCu1TrngKk8o3I4AAOkNwI2xv00tIHZGR/U9+I6zarPi/fhYUFlNGLlx61/
ONx2tJt84/AyAytJCnnhCtFHA2H/LwE12L9wDRxcA2Ti78p70eDS2lHaxyyOr9mg
HGqPclS0TrTJV+jwxGa8KojeCbGMBKcLbh3KAiL1jwX+vG20EqULo3/0GnM8xnX6
w37Pv7Q5RRPpwcOsf1oScpO6RkYkEEdVPETjDK6/O/OOybcf29q/Xtiff6ehau8F
RT3h+ey5f/z+qZViNDkEAs2wsjI7KX2e0l5xakDTI7p/iL61TMh/j2IrMV/NThDx
CtUushZbZn9sJf3/YLLW5RD+QV2DRy7B1Jx1rRmBiU3FbumFMKCiIH6+CmR4c7r4
PKPD/qWFbppHMiWaSAt4PRcIWxcTQVZY98syw5X3oKb0NFOI4jxJjJMlY7ZkElLs
UfHKeOabpHwe4z+LEDRJ/5EKgLUN21eZXilJNeH4IvSYXDGSfUzwRcVUVhh3IYvE
xBKFV3f8TiMk9OneTc80eEdhI4I1Z46ic/hUm0MfP4JXUkrh/5lTWOlVcv6DFQFs
X19gWquJLO9nJ1/INpfMaIkIxwa2G0dxZX9oCgv9s/JuCt+mRcXDRHrPigWv9H9x
r9evTFGJgo2bW0U45tPyfwIDAQABo4G8MIG5MAkGA1UdEwQCMAAwCwYDVR0PBAQD
AgP4MCwGCWCGSAGG+EIBDQQfFh1PcGVuU1NMIEdlbmVyYXRlZCBDZXJ0aWZpY2F0
ZTAdBgNVHQ4EFgQUdL86atH5DA4vNacKDYDltxSThv4wHwYDVR0jBBgwFoAUlURo
kjecqGDV3xdAdHgKytfP5ccwMQYDVR0fBCowKDAmoCSgIoYgaHR0cDovLzE5Mi4x
NjguMjEuODkvcm9vdGNybC5wZW0wDQYJKoZIhvcNAQEFBQADggIBAB3ZHEOaEdCV
1LHEjpTXC6Eq6nukbWfAe7kXuTKMBzNerLzWCd66NtvVoIcibRnD+L9xb8nXLfIS
GQt21JMZYrsCpSZLnOZyOcvidAVIYsK3pO9PCwyqfK7SNAMEjHLp3axXHA+DAX+q
qxXR1ws/EmwvTtFspe6cgK8BQNLyG0wOcus21VgCMF7YGQTBXJu+x14pLYHnTMsW
VjbQ9SgKdDZEDsn4SQu7EZI553Stqbw6HubEcBCbwx2LI10sx2yMM3BCx6FKC1O9
ABXgxY6gbcxKzFUjD0n468pE18Wly4IIsvKUuYRD4mRvLsch2byqqSailxlz9iwF
7QLUFRwwyu3hvsyprwj5XMUhrb48DBQs90n742Dv+18f92wrLNkmvDGCATWGfjTM
tL3g9Z/oXXtj0SwgFHH20EG8gkC82ozSr8VNA7R9e+UBSddZ4jAU6r/7eo4HBbyr
BYnhol1tkofaSYOvv6+i4i6ycT+9doOgECsXXWOrmw3np9uadfhKac/X4bcENJqZ
ePPZccow4UvqSX4P6hXjf6U9Sc1Tjqy+pfsPS8njQtmZq8Sfh0E9rJGk7Ki/RPm0
w1rYaZrvVXn+EPe1gpm6HhyjStM1g3hJJrmtyG0mjq0FM9UR234XupLmh4cDfV1B
lUDaHqwrC15I9GZRPM603WIGc9X+SbuR
-----END CERTIFICATE-----
