Certificate:
    Data:
        Version: 3 (0x2)
        Serial Number: 2 (0x2)
        Signature Algorithm: sha1WithRSAEncryption
        Issuer: C=BA, ST=RS, L=Banja Luka, O=Elektrotehnicki fakultet, O=Univerzitet u Banjoj Luci, OU=ETF, CN=CA/emailAddress=ca@mail.com/title=Prof.
        Validity
            Not Before: Mar  9 17:16:55 2025 GMT
            Not After : Mar 14 17:16:55 2025 GMT
        Subject: C=BA, ST=RS, O=Elektrotehnicki fakultet, OU=ETF, CN=client2/emailAddress=client2@mail.com
        Subject Public Key Info:
            Public Key Algorithm: rsaEncryption
                Public-Key: (4096 bit)
                Modulus:
                    00:db:35:1d:d0:f0:ae:44:b4:c8:1f:47:2a:40:64:
                    ed:a0:e7:c2:c9:3e:55:18:a0:1f:81:fb:47:97:7e:
                    b6:83:56:7d:e8:d9:76:6f:0c:40:28:c3:df:14:04:
                    39:bf:53:d2:b4:03:d1:a5:35:a1:fd:eb:f4:2e:e5:
                    ba:f1:64:af:88:ab:98:00:6f:a4:16:42:47:82:1c:
                    69:ee:9a:80:f3:e5:0c:c3:33:8d:8f:9a:20:7d:e6:
                    27:7e:cf:99:40:7c:1e:ba:6e:19:80:b9:2d:b7:a5:
                    a2:d3:18:72:3e:7b:a1:3c:fe:b6:39:a0:4c:5b:ab:
                    d5:3e:fe:48:98:29:09:f5:f7:61:e8:66:57:67:1e:
                    df:30:30:11:e4:60:b4:e9:ce:b2:ff:bd:88:d9:bd:
                    51:f7:b4:19:fe:1d:b6:e5:54:b5:0a:65:12:e1:81:
                    e5:70:47:f7:e0:d4:9e:54:a5:77:ca:05:b9:be:62:
                    28:45:f2:56:5b:9a:c1:ad:5c:5e:8f:b0:45:db:99:
                    f6:a9:67:51:5c:90:33:b2:7e:6d:62:0d:b4:96:02:
                    ba:bc:36:67:58:c4:e0:83:dc:5b:2c:03:6d:16:93:
                    b4:d2:fc:e7:9f:18:d2:e6:71:3f:33:3d:e3:27:43:
                    f8:c7:62:b8:1d:d6:a9:fa:9c:12:2d:6f:33:1e:60:
                    b8:2a:36:d8:54:20:c1:39:47:06:cb:0e:2a:37:2f:
                    23:03:82:bb:aa:bf:e3:7a:22:45:79:39:26:9e:3c:
                    a7:89:d9:0e:27:95:ed:ba:21:71:63:0b:b0:f7:39:
                    ce:e4:80:39:c7:15:d3:93:c3:33:ac:dc:53:58:fa:
                    32:2a:bb:4d:66:33:19:a1:ae:53:3e:51:9f:ef:bb:
                    60:46:9a:47:d1:5a:43:e7:c1:e9:b0:96:98:51:5f:
                    7c:52:86:49:94:54:4d:58:b6:57:46:ef:ed:a9:5d:
                    70:a0:cc:b9:21:a9:3e:7c:2d:b7:64:15:d2:e1:8e:
                    60:51:a8:26:12:72:99:80:77:33:44:f6:7f:47:f7:
                    1f:d4:34:27:95:4d:24:20:29:57:a4:af:61:f1:b2:
                    cd:d7:e7:81:42:5e:7a:40:c6:f0:58:1c:57:d3:ce:
                    96:60:b2:e2:bf:5c:f9:54:d8:b3:21:c6:74:ca:4d:
                    6a:53:87:49:83:2c:b8:a5:27:c2:bb:41:bc:0b:11:
                    8c:73:07:25:0b:9f:e2:f5:ba:a4:93:39:88:4a:ad:
                    82:e1:e3:3f:54:18:fd:e2:02:e8:2b:36:eb:17:ac:
                    da:59:8c:47:08:32:95:5f:69:b2:33:e2:a7:9f:b6:
                    3e:5e:49:0b:bd:2e:5c:e4:78:9b:c0:e8:d8:37:03:
                    2b:db:23
                Exponent: 65537 (0x10001)
        X509v3 extensions:
            X509v3 Basic Constraints: 
                CA:FALSE
            X509v3 Key Usage: 
                Digital Signature, Non Repudiation, Key Encipherment, Data Encipherment, Key Agreement
            Netscape Comment: 
                OpenSSL Generated Certificate
            X509v3 Subject Key Identifier: 
                20:D4:E7:7A:62:2B:0E:C5:36:B7:B5:4A:CC:EC:90:B5:71:BA:1A:BE
            X509v3 Authority Key Identifier: 
                95:44:68:92:37:9C:A8:60:D5:DF:17:40:74:78:0A:CA:D7:CF:E5:C7
            X509v3 CRL Distribution Points: 
                Full Name:
                  URI:http://192.168.21.89/rootcrl.pem
    Signature Algorithm: sha1WithRSAEncryption
    Signature Value:
        61:03:fa:1f:b5:27:b2:7f:62:01:56:80:76:8f:89:ec:3e:52:
        53:47:51:75:24:f5:ab:c3:2c:08:ed:a3:58:72:f1:b2:10:18:
        72:2c:13:fb:06:f2:03:8d:e5:e9:ee:a6:8c:c7:a7:3e:83:57:
        77:d4:33:f4:ab:25:26:bb:8f:4c:1c:1a:b9:78:bb:6c:e4:ac:
        d1:29:85:59:a7:4b:1f:b7:84:21:3f:46:99:98:bb:1b:49:ef:
        e7:e7:a4:7c:71:d9:00:07:42:56:06:d8:79:b5:96:9c:5b:fd:
        29:8c:6c:58:b9:e7:7c:b0:d8:18:cc:fa:13:cc:38:8d:96:9b:
        18:b4:28:74:0b:41:f5:c6:c8:5d:32:c2:a7:5b:f7:57:70:46:
        03:dd:cc:b8:5d:e3:48:19:07:a2:64:e1:bd:17:4f:1f:6e:da:
        c7:94:18:b5:07:1b:bf:2b:d0:3c:61:24:63:9c:cf:71:94:a3:
        32:49:4b:3e:ad:de:6f:f2:d8:98:22:c9:f0:bf:0f:99:3b:95:
        53:2a:c3:58:ae:50:40:79:f5:54:ae:17:b6:21:de:c8:ee:c1:
        7d:66:24:eb:10:c6:fa:a8:71:1f:be:44:72:a2:11:45:15:b0:
        3c:f0:9f:bc:d0:3b:0d:36:81:3d:0a:33:d8:1c:e1:2f:88:12:
        e5:b3:ce:62:9e:44:e1:16:70:35:1f:78:3f:2b:37:e1:0d:56:
        0f:67:ef:ec:18:35:a5:7f:a6:8c:8f:d8:d6:8a:6f:f5:79:5b:
        7d:41:06:99:44:f3:fe:66:37:56:26:85:04:f1:61:cd:43:57:
        e0:35:c9:f1:5f:a8:23:fb:46:39:91:b8:88:ea:1d:bf:62:34:
        45:b6:af:4f:22:21:07:78:ea:f0:c8:da:f4:dd:aa:72:cd:62:
        b1:54:98:e3:31:a4:f8:ad:c4:df:95:55:3b:0a:03:59:24:27:
        0b:a1:4d:cc:2b:81:09:68:e2:1f:47:82:72:88:a2:40:6f:0f:
        15:a6:fa:1c:77:19:ef:0f:b0:e8:cc:bb:45:66:f2:06:9d:1c:
        20:d0:ca:78:4b:ce:6b:c9:bb:6e:44:10:61:d4:42:33:7c:51:
        e7:c8:b9:bf:24:bd:64:f1:39:09:22:cb:18:68:8d:be:e0:63:
        06:25:27:5e:ca:b8:a9:34:76:80:63:78:d5:0e:3a:fa:31:07:
        07:fe:b7:7d:0c:f8:3d:ca:0b:c0:91:f8:3e:b4:ea:37:1c:03:
        55:2c:fd:74:4d:ef:c5:4f:a6:1f:c4:ab:35:c5:c1:6a:29:5c:
        ed:3b:c7:46:98:66:aa:63:1d:fb:30:73:9a:42:8b:e3:01:69:
        1d:a7:a7:30:d1:cc:0d:14
-----BEGIN CERTIFICATE-----
MIIGdDCCBFygAwIBAgIBAjANBgkqhkiG9w0BAQUFADCBvTELMAkGA1UEBhMCQkEx
CzAJBgNVBAgTAlJTMRMwEQYDVQQHEwpCYW5qYSBMdWthMSEwHwYDVQQKExhFbGVr
dHJvdGVobmlja2kgZmFrdWx0ZXQxIjAgBgNVBAoTGVVuaXZlcnppdGV0IHUgQmFu
am9qIEx1Y2kxDDAKBgNVBAsTA0VURjELMAkGA1UEAxMCQ0ExGjAYBgkqhkiG9w0B
CQEWC2NhQG1haWwuY29tMQ4wDAYDVQQMEwVQcm9mLjAeFw0yNTAzMDkxNzE2NTVa
Fw0yNTAzMTQxNzE2NTVaMH4xCzAJBgNVBAYTAkJBMQswCQYDVQQIEwJSUzEhMB8G
A1UEChMYRWxla3Ryb3RlaG5pY2tpIGZha3VsdGV0MQwwCgYDVQQLEwNFVEYxEDAO
BgNVBAMTB2NsaWVudDIxHzAdBgkqhkiG9w0BCQEWEGNsaWVudDJAbWFpbC5jb20w
ggIiMA0GCSqGSIb3DQEBAQUAA4ICDwAwggIKAoICAQDbNR3Q8K5EtMgfRypAZO2g
58LJPlUYoB+B+0eXfraDVn3o2XZvDEAow98UBDm/U9K0A9GlNaH96/Qu5brxZK+I
q5gAb6QWQkeCHGnumoDz5QzDM42PmiB95id+z5lAfB66bhmAuS23paLTGHI+e6E8
/rY5oExbq9U+/kiYKQn192HoZldnHt8wMBHkYLTpzrL/vYjZvVH3tBn+HbblVLUK
ZRLhgeVwR/fg1J5UpXfKBbm+YihF8lZbmsGtXF6PsEXbmfapZ1FckDOyfm1iDbSW
Arq8NmdYxOCD3FssA20Wk7TS/OefGNLmcT8zPeMnQ/jHYrgd1qn6nBItbzMeYLgq
NthUIME5RwbLDio3LyMDgruqv+N6IkV5OSaePKeJ2Q4nle26IXFjC7D3Oc7kgDnH
FdOTwzOs3FNY+jIqu01mMxmhrlM+UZ/vu2BGmkfRWkPnwemwlphRX3xShkmUVE1Y
tldG7+2pXXCgzLkhqT58LbdkFdLhjmBRqCYScpmAdzNE9n9H9x/UNCeVTSQgKVek
r2Hxss3X54FCXnpAxvBYHFfTzpZgsuK/XPlU2LMhxnTKTWpTh0mDLLilJ8K7QbwL
EYxzByULn+L1uqSTOYhKrYLh4z9UGP3iAugrNusXrNpZjEcIMpVfabIz4qeftj5e
SQu9LlzkeJvA6Ng3AyvbIwIDAQABo4G8MIG5MAkGA1UdEwQCMAAwCwYDVR0PBAQD
AgP4MCwGCWCGSAGG+EIBDQQfFh1PcGVuU1NMIEdlbmVyYXRlZCBDZXJ0aWZpY2F0
ZTAdBgNVHQ4EFgQUINTnemIrDsU2t7VKzOyQtXG6Gr4wHwYDVR0jBBgwFoAUlURo
kjecqGDV3xdAdHgKytfP5ccwMQYDVR0fBCowKDAmoCSgIoYgaHR0cDovLzE5Mi4x
NjguMjEuODkvcm9vdGNybC5wZW0wDQYJKoZIhvcNAQEFBQADggIBAGED+h+1J7J/
YgFWgHaPiew+UlNHUXUk9avDLAjto1hy8bIQGHIsE/sG8gON5enupozHpz6DV3fU
M/SrJSa7j0wcGrl4u2zkrNEphVmnSx+3hCE/RpmYuxtJ7+fnpHxx2QAHQlYG2Hm1
lpxb/SmMbFi553yw2BjM+hPMOI2Wmxi0KHQLQfXGyF0ywqdb91dwRgPdzLhd40gZ
B6Jk4b0XTx9u2seUGLUHG78r0DxhJGOcz3GUozJJSz6t3m/y2JgiyfC/D5k7lVMq
w1iuUEB59VSuF7Yh3sjuwX1mJOsQxvqocR++RHKiEUUVsDzwn7zQOw02gT0KM9gc
4S+IEuWzzmKeROEWcDUfeD8rN+ENVg9n7+wYNaV/poyP2NaKb/V5W31BBplE8/5m
N1YmhQTxYc1DV+A1yfFfqCP7RjmRuIjqHb9iNEW2r08iIQd46vDI2vTdqnLNYrFU
mOMxpPitxN+VVTsKA1kkJwuhTcwrgQlo4h9HgnKIokBvDxWm+hx3Ge8PsOjMu0Vm
8gadHCDQynhLzmvJu25EEGHUQjN8UefIub8kvWTxOQkiyxhojb7gYwYlJ17KuKk0
doBjeNUOOvoxBwf+t30M+D3KC8CR+D606jccA1Us/XRN78VPph/EqzXFwWopXO07
x0aYZqpjHfswc5pCi+MBaR2npzDRzA0U
-----END CERTIFICATE-----
