Certificate:
    Data:
        Version: 3 (0x2)
        Serial Number: 3 (0x3)
        Signature Algorithm: sha1WithRSAEncryption
        Issuer: C=BA, ST=RS, O=Elektrotehnicki fakultet, OU=CA_ETF, CN=CA tijelo/emailAddress=ca@mail.com/title=CA
        Validity
            Not Before: Mar 12 21:52:58 2025 GMT
            Not After : Mar 12 21:52:58 2026 GMT
        Subject: C=BA, ST=RS, O=Elektrotehnicki fakultet, OU=CA_ETF, CN=client3
        Subject Public Key Info:
            Public Key Algorithm: rsaEncryption
                Public-Key: (2048 bit)
                Modulus:
                    00:aa:fe:75:e3:0b:9e:2d:5b:31:9d:6c:a6:46:8d:
                    e6:81:57:10:3d:b4:81:cc:33:a5:3c:60:c9:8d:c9:
                    05:92:fe:a0:1d:a3:38:53:c8:ca:f8:fe:7a:66:d3:
                    c2:e1:18:bf:03:a2:35:d8:75:5e:7d:f9:e3:0e:e2:
                    3d:83:2e:11:f6:4e:09:31:76:12:f2:85:08:79:b4:
                    c1:66:d6:03:0c:33:00:64:63:b1:04:82:d6:82:2f:
                    78:25:19:d2:7b:82:ac:06:13:2e:46:e8:76:d8:d0:
                    2c:ce:ee:de:7e:2a:ec:a7:51:45:b5:3d:8c:f9:3d:
                    18:02:88:a2:65:e3:9a:a7:85:14:c3:d4:db:23:15:
                    03:b2:eb:14:c0:db:5d:67:5c:37:88:ef:cb:dc:86:
                    a9:57:09:90:ee:72:de:14:b9:0d:5d:63:ed:5f:3f:
                    77:af:86:24:ed:ce:b6:e5:cd:95:87:c0:2b:e5:87:
                    6c:ce:47:cc:ee:b5:50:e1:16:9b:7d:eb:68:fc:ee:
                    c8:a4:e8:33:c1:54:df:fc:da:e0:71:a4:45:c5:e6:
                    18:d1:6c:6c:a1:ce:e1:f0:c7:e2:0f:a6:54:fd:5b:
                    09:4e:7b:5f:cf:c4:af:55:e2:95:7b:7e:25:a5:7e:
                    f0:4f:d3:84:32:10:70:37:4e:0c:4e:cd:3f:86:65:
                    5f:bf
                Exponent: 65537 (0x10001)
        X509v3 extensions:
            X509v3 Basic Constraints: 
                CA:TRUE
            X509v3 Key Usage: 
                Encipher Only
            X509v3 Extended Key Usage: 
                TLS Web Client Authentication, TLS Web Server Authentication
            Netscape Comment: 
                OpenSSL Generated Certificate
            X509v3 Subject Key Identifier: 
                06:4C:16:BF:4B:9E:D9:7E:3C:EB:0C:B8:30:F5:8B:C2:BA:62:7D:A1
            X509v3 Authority Key Identifier: 
                70:DE:92:9D:62:DD:04:8F:5F:B6:84:40:27:9E:DB:93:FC:33:A5:16
            X509v3 CRL Distribution Points: 
                Full Name:
                  URI:http://192.168.21.89/rootcrl.pem
    Signature Algorithm: sha1WithRSAEncryption
    Signature Value:
        56:5d:b2:10:87:c2:dc:11:b8:70:19:17:2b:08:8f:36:f6:ab:
        80:4d:ab:bb:ff:88:73:99:58:e8:d7:df:fa:e7:89:51:57:03:
        ff:b5:50:3c:91:5e:3c:1d:53:ad:bf:1b:79:5c:66:d0:cc:77:
        10:eb:48:bd:be:3f:7d:6b:38:88:ed:a8:aa:9f:9e:58:c3:4b:
        7e:4f:29:df:1d:68:21:c2:33:4c:63:f1:3d:65:cc:f7:42:d1:
        12:b4:30:e2:a2:34:69:76:77:35:25:a3:03:c0:33:12:fd:ac:
        22:42:62:4c:ab:00:9a:f1:c1:63:78:00:28:5c:9c:fd:e8:b5:
        db:93:f7:70:83:5f:75:0a:eb:ab:a2:7d:e9:e7:a2:78:4f:49:
        3a:79:4e:39:26:f2:43:29:b3:2c:b4:9d:98:bc:35:99:3d:38:
        6d:9b:e0:b8:f3:33:5c:ed:49:e3:99:7e:06:a8:2d:d8:80:9b:
        0c:bd:e4:4c:dd:1e:ed:85:e3:2a:0f:e7:3d:a9:1a:4b:c0:ad:
        a6:17:8e:b2:9b:f3:f2:10:04:78:59:09:6d:66:49:10:45:6e:
        2e:45:47:94:e3:03:2a:10:8f:e0:05:dc:21:08:9f:02:33:91:
        7c:9f:f9:c0:b4:da:0e:da:11:82:94:6a:62:d5:85:e6:c4:49:
        25:f9:e0:e5:93:f0:34:fe:91:e3:fe:8f:ce:8d:3b:43:73:7e:
        00:3e:23:30:46:8b:3a:bf:c8:8b:18:31:50:ee:5a:cc:cf:7a:
        e8:2e:d5:66:89:35:1a:3c:a7:0b:a3:c2:42:2c:c8:80:68:30:
        04:cf:7f:3c:ef:e0:5e:b3:89:64:56:7b:21:f6:dc:37:84:55:
        9b:6b:f3:38:28:d2:6b:7c:fc:1a:2e:38:a5:a3:15:bc:de:fb:
        a9:c1:22:2a:12:31:c5:e7:b0:be:55:89:5f:bf:79:bb:02:74:
        a8:96:47:a1:3e:3d:e8:13:97:cd:54:09:2c:34:c9:26:c2:5d:
        f2:0d:31:0a:5a:92:c3:a5:af:47:dc:74:27:31:e2:76:03:ed:
        a2:3b:e2:f8:34:8d:2d:c3:79:26:0e:9e:10:19:83:5b:3b:b8:
        12:f5:0f:6b:28:6c:3e:1c:27:60:ad:6b:ca:a1:73:c7:3e:db:
        6f:41:5e:40:b0:0b:6c:18:f8:30:f0:09:52:9c:40:62:53:9b:
        07:cb:1c:5f:71:64:60:26:5c:d1:1e:3d:df:11:3b:51:ad:ba:
        cb:ff:63:e6:be:fc:4e:98:39:96:82:08:9e:75:ea:c6:70:c0:
        b7:0d:6e:11:8d:e0:27:73:9a:7b:ae:11:a8:2e:bd:8c:d6:f3:
        3f:ca:81:6a:39:0a:43:89
-----BEGIN CERTIFICATE-----
MIIFRjCCAy6gAwIBAgIBAzANBgkqhkiG9w0BAQUFADCBizELMAkGA1UEBhMCQkEx
CzAJBgNVBAgTAlJTMSEwHwYDVQQKExhFbGVrdHJvdGVobmlja2kgZmFrdWx0ZXQx
DzANBgNVBAsUBkNBX0VURjESMBAGA1UEAxMJQ0EgdGlqZWxvMRowGAYJKoZIhvcN
AQkBFgtjYUBtYWlsLmNvbTELMAkGA1UEDBMCQ0EwHhcNMjUwMzEyMjE1MjU4WhcN
MjYwMzEyMjE1MjU4WjBgMQswCQYDVQQGEwJCQTELMAkGA1UECBMCUlMxITAfBgNV
BAoTGEVsZWt0cm90ZWhuaWNraSBmYWt1bHRldDEPMA0GA1UECxQGQ0FfRVRGMRAw
DgYDVQQDEwdjbGllbnQzMIIBIjANBgkqhkiG9w0BAQEFAAOCAQ8AMIIBCgKCAQEA
qv514wueLVsxnWymRo3mgVcQPbSBzDOlPGDJjckFkv6gHaM4U8jK+P56ZtPC4Ri/
A6I12HVeffnjDuI9gy4R9k4JMXYS8oUIebTBZtYDDDMAZGOxBILWgi94JRnSe4Ks
BhMuRuh22NAszu7efirsp1FFtT2M+T0YAoiiZeOap4UUw9TbIxUDsusUwNtdZ1w3
iO/L3IapVwmQ7nLeFLkNXWPtXz93r4Yk7c625c2Vh8Ar5YdszkfM7rVQ4Rabfeto
/O7IpOgzwVTf/NrgcaRFxeYY0Wxsoc7h8MfiD6ZU/VsJTntfz8SvVeKVe34lpX7w
T9OEMhBwN04MTs0/hmVfvwIDAQABo4HeMIHbMAwGA1UdEwQFMAMBAf8wCwYDVR0P
BAQDAgABMB0GA1UdJQQWMBQGCCsGAQUFBwMCBggrBgEFBQcDATAsBglghkgBhvhC
AQ0EHxYdT3BlblNTTCBHZW5lcmF0ZWQgQ2VydGlmaWNhdGUwHQYDVR0OBBYEFAZM
Fr9Lntl+POsMuDD1i8K6Yn2hMB8GA1UdIwQYMBaAFHDekp1i3QSPX7aEQCee25P8
M6UWMDEGA1UdHwQqMCgwJqAkoCKGIGh0dHA6Ly8xOTIuMTY4LjIxLjg5L3Jvb3Rj
cmwucGVtMA0GCSqGSIb3DQEBBQUAA4ICAQBWXbIQh8LcEbhwGRcrCI829quATau7
/4hzmVjo19/654lRVwP/tVA8kV48HVOtvxt5XGbQzHcQ60i9vj99aziI7aiqn55Y
w0t+TynfHWghwjNMY/E9Zcz3QtEStDDiojRpdnc1JaMDwDMS/awiQmJMqwCa8cFj
eAAoXJz96LXbk/dwg191Cuuron3p56J4T0k6eU45JvJDKbMstJ2YvDWZPThtm+C4
8zNc7UnjmX4GqC3YgJsMveRM3R7theMqD+c9qRpLwK2mF46ym/PyEAR4WQltZkkQ
RW4uRUeU4wMqEI/gBdwhCJ8CM5F8n/nAtNoO2hGClGpi1YXmxEkl+eDlk/A0/pHj
/o/OjTtDc34APiMwRos6v8iLGDFQ7lrMz3roLtVmiTUaPKcLo8JCLMiAaDAEz388
7+Bes4lkVnsh9tw3hFWba/M4KNJrfPwaLjiloxW83vupwSIqEjHF57C+VYlfv3m7
AnSolkehPj3oE5fNVAksNMkmwl3yDTEKWpLDpa9H3HQnMeJ2A+2iO+L4NI0tw3km
Dp4QGYNbO7gS9Q9rKGw+HCdgrWvKoXPHPttvQV5AsAtsGPgw8AlSnEBiU5sHyxxf
cWRgJlzRHj3fETtRrbrL/2PmvvxOmDmWggiederGcMC3DW4RjeAnc5p7rhGoLr2M
1vM/yoFqOQpDiQ==
-----END CERTIFICATE-----
