Certificate:
    Data:
        Version: 3 (0x2)
        Serial Number: 6 (0x6)
        Signature Algorithm: sha1WithRSAEncryption
        Issuer: C=BA, ST=RS, L=Banja Luka, O=Elektrotehnicki fakultet, O=Univerzitet u Banjoj Luci, OU=ETF, CN=CA/emailAddress=ca@mail.com/title=Prof.
        Validity
            Not Before: Mar  9 17:20:22 2025 GMT
            Not After : Mar  9 17:20:22 2026 GMT
        Subject: C=BA, ST=RS, O=Elektrotehnicki fakultet, OU=ETF, CN=client6/emailAddress=client6@mail.com
        Subject Public Key Info:
            Public Key Algorithm: rsaEncryption
                Public-Key: (4096 bit)
                Modulus:
                    00:ba:ff:8b:f7:32:2b:65:a7:d8:55:a8:45:91:2e:
                    e1:9c:88:79:86:38:d6:c0:1d:6d:54:63:8b:b6:44:
                    c3:74:00:ec:fb:7a:98:4d:2e:de:ae:3f:0d:a5:83:
                    73:13:42:6f:f3:9c:6a:e4:c1:9d:a6:f0:d0:f5:39:
                    01:47:a6:f3:c9:c5:58:ae:81:35:75:3e:80:8b:38:
                    b6:5c:8b:94:1a:76:4a:70:87:fe:7f:eb:91:0c:e9:
                    86:ba:bd:8d:7d:1a:0c:d2:c8:5e:12:81:0c:d0:b3:
                    6e:d5:f6:c1:b0:63:d5:69:57:af:3e:bf:75:65:73:
                    bc:f6:a9:6a:f6:3b:e9:0c:d3:54:8e:f8:41:75:c3:
                    50:d1:80:20:8d:c9:a6:44:90:f6:2c:66:99:20:10:
                    ea:96:93:74:2d:2b:fb:b4:1d:68:3a:b7:86:dd:92:
                    8f:42:eb:c4:2c:28:4d:13:9e:8f:51:98:3c:13:05:
                    f9:64:98:c0:f7:66:c8:66:39:61:7a:b7:1c:ca:5e:
                    ad:22:9a:b8:ba:f9:8c:79:a5:58:4f:83:5f:23:74:
                    61:79:aa:8d:9e:0f:05:65:a9:2c:d4:20:06:99:cd:
                    1d:06:04:7f:8d:7e:1d:b7:c8:62:bd:9f:e6:a3:0d:
                    70:b1:70:b8:59:c2:ae:32:52:a7:20:04:31:d6:9c:
                    b8:c1:42:43:71:cb:8e:4e:97:e8:76:1b:9f:ec:e4:
                    f5:8d:76:c6:12:f6:25:b3:08:ea:19:e5:f4:1d:9c:
                    11:61:67:36:94:be:3d:7a:c9:75:a0:ba:bd:e6:c7:
                    0b:c5:45:c6:5e:79:58:3a:26:5e:8e:39:be:6f:a7:
                    f1:d7:b9:86:c6:7a:19:89:4a:d3:b7:4d:49:8d:ba:
                    28:21:ec:18:70:39:5c:ca:ed:35:e5:11:5a:61:51:
                    df:c6:49:1a:f3:bc:1d:1c:dc:39:44:4e:c7:94:72:
                    8f:3d:48:f6:81:72:8f:3b:4b:34:08:74:bb:25:b4:
                    61:d8:f7:87:e3:11:ef:42:a5:4d:7f:88:9e:61:a6:
                    49:2e:25:3b:e1:28:30:b1:26:d9:17:9a:f5:a2:4e:
                    34:d1:5f:78:b9:d7:ec:aa:f7:6f:d4:87:49:dc:66:
                    eb:20:58:2c:b9:10:04:97:0d:0c:58:6a:6f:7b:fa:
                    54:ab:21:43:d8:bd:6b:cd:47:3d:4e:fd:8c:dd:45:
                    82:ed:22:c2:3f:1e:be:f9:a5:8f:93:e6:3d:5d:2a:
                    8c:48:71:77:74:c4:5c:d5:d6:58:b3:d6:27:fd:5e:
                    a1:7b:f2:2b:3d:25:72:b8:95:c6:55:4c:b0:33:61:
                    80:a9:9d:b0:d6:74:95:41:5b:16:9b:78:18:df:6d:
                    57:1f:23
                Exponent: 65537 (0x10001)
        X509v3 extensions:
            X509v3 Basic Constraints: 
                CA:FALSE
            X509v3 Key Usage: 
                Digital Signature, Non Repudiation, Key Encipherment, Data Encipherment, Key Agreement
            Netscape Comment: 
                OpenSSL Generated Certificate
            X509v3 Subject Key Identifier: 
                D9:8C:63:CB:DD:B8:95:DE:2F:C0:EA:28:50:FE:96:BC:9B:9A:42:29
            X509v3 Authority Key Identifier: 
                95:44:68:92:37:9C:A8:60:D5:DF:17:40:74:78:0A:CA:D7:CF:E5:C7
            X509v3 CRL Distribution Points: 
                Full Name:
                  URI:http://192.168.21.89/rootcrl.pem
    Signature Algorithm: sha1WithRSAEncryption
    Signature Value:
        a4:c8:21:86:9b:5f:23:e2:36:dc:92:a6:39:c4:95:10:0e:4f:
        9f:a9:b1:db:7d:f2:ac:2a:37:8e:92:0a:03:57:dd:2c:65:e4:
        50:93:76:29:60:fd:e3:29:80:3e:2c:57:41:2b:33:d6:16:a7:
        e2:ba:80:73:e2:d1:ba:b7:18:1e:9d:e4:5b:d7:93:7b:b8:f2:
        7f:08:0c:47:7b:16:11:b7:6a:9b:38:91:3f:ee:04:77:2f:ce:
        c6:e7:78:c4:a5:9a:ed:94:6b:73:f0:cb:1e:f5:a4:47:67:ca:
        87:54:ec:7e:73:74:bb:4f:d7:d8:49:b3:cb:4a:06:ce:8b:31:
        b7:03:d8:a7:19:26:cb:4f:97:ad:68:d8:b5:85:c9:9e:b0:31:
        21:dd:4d:fd:fc:ff:d3:00:cd:ac:ad:5c:23:f6:c6:fe:88:55:
        a8:35:33:a4:53:f4:e1:53:94:ce:0c:f1:85:1c:69:a8:07:91:
        3a:05:a8:d3:57:e5:bb:fe:25:34:03:be:5b:df:a9:ca:07:85:
        7e:8f:d8:a8:5d:56:f0:8c:21:0d:43:6a:5b:2c:fc:23:e7:7f:
        10:8b:97:47:49:54:71:bf:10:5c:45:c0:cd:31:48:a0:f6:4f:
        47:2b:f9:d5:53:5a:05:25:3a:47:b8:17:32:70:5e:6e:c0:70:
        18:3e:f0:1a:5b:7b:27:70:c2:f9:31:37:85:ca:14:b4:f3:1a:
        84:44:8e:a8:81:71:aa:7e:d5:f8:d2:94:5e:6a:38:ee:e7:75:
        53:8e:f4:db:7c:13:06:9b:af:63:7c:c0:59:ed:87:4c:55:4e:
        0f:6a:8e:49:8a:f2:e1:ea:e8:4e:25:37:6c:b5:b9:46:e8:82:
        5a:29:9f:ec:04:0f:8f:56:16:59:85:3b:e5:2f:c6:4d:bf:79:
        07:98:5c:21:9e:25:9c:2c:c8:0e:c7:3f:73:39:42:48:f4:33:
        71:d7:80:21:a2:78:81:99:9d:66:04:a4:12:96:db:76:d2:9a:
        a1:ef:6b:19:fc:6b:b1:ec:55:6d:6c:32:86:0e:50:b6:5e:31:
        f2:c6:ef:ca:87:53:29:bc:c9:47:3d:34:f9:5b:ba:8b:b7:15:
        3c:fc:1a:11:c4:ca:6d:48:34:e5:2c:d8:25:26:47:66:76:61:
        10:55:54:dc:1a:16:47:76:87:6f:84:f0:71:43:08:5f:a0:cd:
        1b:8d:b8:50:a4:b5:61:d0:21:67:f1:1c:18:3d:3c:b3:92:6e:
        2f:64:11:ca:92:88:ff:0c:c1:cb:91:90:d0:43:a6:6f:7b:ba:
        c6:46:b6:db:f4:c6:8f:ad:40:90:18:4b:3a:43:6f:5c:2e:99:
        fa:21:89:f5:ea:50:e0:d3
-----BEGIN CERTIFICATE-----
MIIGdDCCBFygAwIBAgIBBjANBgkqhkiG9w0BAQUFADCBvTELMAkGA1UEBhMCQkEx
CzAJBgNVBAgTAlJTMRMwEQYDVQQHEwpCYW5qYSBMdWthMSEwHwYDVQQKExhFbGVr
dHJvdGVobmlja2kgZmFrdWx0ZXQxIjAgBgNVBAoTGVVuaXZlcnppdGV0IHUgQmFu
am9qIEx1Y2kxDDAKBgNVBAsTA0VURjELMAkGA1UEAxMCQ0ExGjAYBgkqhkiG9w0B
CQEWC2NhQG1haWwuY29tMQ4wDAYDVQQMEwVQcm9mLjAeFw0yNTAzMDkxNzIwMjJa
Fw0yNjAzMDkxNzIwMjJaMH4xCzAJBgNVBAYTAkJBMQswCQYDVQQIEwJSUzEhMB8G
A1UEChMYRWxla3Ryb3RlaG5pY2tpIGZha3VsdGV0MQwwCgYDVQQLEwNFVEYxEDAO
BgNVBAMTB2NsaWVudDYxHzAdBgkqhkiG9w0BCQEWEGNsaWVudDZAbWFpbC5jb20w
ggIiMA0GCSqGSIb3DQEBAQUAA4ICDwAwggIKAoICAQC6/4v3Mitlp9hVqEWRLuGc
iHmGONbAHW1UY4u2RMN0AOz7ephNLt6uPw2lg3MTQm/znGrkwZ2m8ND1OQFHpvPJ
xViugTV1PoCLOLZci5Qadkpwh/5/65EM6Ya6vY19GgzSyF4SgQzQs27V9sGwY9Vp
V68+v3Vlc7z2qWr2O+kM01SO+EF1w1DRgCCNyaZEkPYsZpkgEOqWk3QtK/u0HWg6
t4bdko9C68QsKE0Tno9RmDwTBflkmMD3ZshmOWF6txzKXq0imri6+Yx5pVhPg18j
dGF5qo2eDwVlqSzUIAaZzR0GBH+Nfh23yGK9n+ajDXCxcLhZwq4yUqcgBDHWnLjB
QkNxy45Ol+h2G5/s5PWNdsYS9iWzCOoZ5fQdnBFhZzaUvj16yXWgur3mxwvFRcZe
eVg6Jl6OOb5vp/HXuYbGehmJStO3TUmNuigh7BhwOVzK7TXlEVphUd/GSRrzvB0c
3DlETseUco89SPaBco87SzQIdLsltGHY94fjEe9CpU1/iJ5hpkkuJTvhKDCxJtkX
mvWiTjTRX3i51+yq92/Uh0ncZusgWCy5EASXDQxYam97+lSrIUPYvWvNRz1O/Yzd
RYLtIsI/Hr75pY+T5j1dKoxIcXd0xFzV1liz1if9XqF78is9JXK4lcZVTLAzYYCp
nbDWdJVBWxabeBjfbVcfIwIDAQABo4G8MIG5MAkGA1UdEwQCMAAwCwYDVR0PBAQD
AgP4MCwGCWCGSAGG+EIBDQQfFh1PcGVuU1NMIEdlbmVyYXRlZCBDZXJ0aWZpY2F0
ZTAdBgNVHQ4EFgQU2Yxjy924ld4vwOooUP6WvJuaQikwHwYDVR0jBBgwFoAUlURo
kjecqGDV3xdAdHgKytfP5ccwMQYDVR0fBCowKDAmoCSgIoYgaHR0cDovLzE5Mi4x
NjguMjEuODkvcm9vdGNybC5wZW0wDQYJKoZIhvcNAQEFBQADggIBAKTIIYabXyPi
NtySpjnElRAOT5+psdt98qwqN46SCgNX3Sxl5FCTdilg/eMpgD4sV0ErM9YWp+K6
gHPi0bq3GB6d5FvXk3u48n8IDEd7FhG3aps4kT/uBHcvzsbneMSlmu2Ua3Pwyx71
pEdnyodU7H5zdLtP19hJs8tKBs6LMbcD2KcZJstPl61o2LWFyZ6wMSHdTf38/9MA
zaytXCP2xv6IVag1M6RT9OFTlM4M8YUcaagHkToFqNNX5bv+JTQDvlvfqcoHhX6P
2KhdVvCMIQ1Dalss/CPnfxCLl0dJVHG/EFxFwM0xSKD2T0cr+dVTWgUlOke4FzJw
Xm7AcBg+8BpbeydwwvkxN4XKFLTzGoREjqiBcap+1fjSlF5qOO7ndVOO9Nt8Ewab
r2N8wFnth0xVTg9qjkmK8uHq6E4lN2y1uUboglopn+wED49WFlmFO+Uvxk2/eQeY
XCGeJZwsyA7HP3M5Qkj0M3HXgCGieIGZnWYEpBKW23bSmqHvaxn8a7HsVW1sMoYO
ULZeMfLG78qHUym8yUc9NPlbuou3FTz8GhHEym1INOUs2CUmR2Z2YRBVVNwaFkd2
h2+E8HFDCF+gzRuNuFCktWHQIWfxHBg9PLOSbi9kEcqSiP8MwcuRkNBDpm97usZG
ttv0xo+tQJAYSzpDb1wumfohifXqUODT
-----END CERTIFICATE-----
