Certificate:
    Data:
        Version: 3 (0x2)
        Serial Number: 7 (0x7)
        Signature Algorithm: sha1WithRSAEncryption
        Issuer: C=BA, ST=RS, L=Banja Luka, O=Elektrotehnicki fakultet, O=Univerzitet u Banjoj Luci, OU=ETF, CN=CA/emailAddress=ca@mail.com/title=Prof.
        Validity
            Not Before: Mar  9 17:22:34 2025 GMT
            Not After : Mar  7 17:22:34 2035 GMT
        Subject: C=BA, ST=RS, O=Elektrotehnicki fakultet, OU=ETF, CN=client7/emailAddress=client7@mail.com
        Subject Public Key Info:
            Public Key Algorithm: rsaEncryption
                Public-Key: (4096 bit)
                Modulus:
                    00:b3:0c:ea:0e:a0:41:bf:3e:e8:a1:47:0d:dc:8c:
                    27:8e:9a:d5:c9:cf:d0:44:00:76:4a:db:bd:09:b5:
                    65:85:ac:8f:7e:79:c2:d9:02:2f:cd:d6:c3:b7:03:
                    16:97:20:c4:b5:13:8c:6b:63:ca:3d:f3:5f:4d:70:
                    f6:05:8e:9d:61:75:79:74:b0:70:c3:17:62:6b:d0:
                    48:14:86:66:fc:49:8f:e9:1a:d0:be:4f:76:7f:83:
                    e0:20:6e:a4:31:33:95:cb:6f:98:98:c4:c6:f7:ae:
                    31:e7:4c:c5:4d:48:9e:09:eb:31:1f:49:3a:1d:f2:
                    b8:db:8d:74:49:a1:87:d2:75:b1:67:96:2e:79:70:
                    4d:4e:84:d2:f8:83:07:2e:11:3f:69:eb:7c:d8:cd:
                    3f:76:de:2b:2c:74:49:2d:64:aa:03:66:77:62:57:
                    bb:af:94:91:4a:25:a3:16:75:2e:57:66:68:b1:50:
                    b7:84:a3:c8:57:2c:41:fb:c5:c7:d4:39:41:c3:40:
                    58:9d:e8:fa:00:03:2c:85:26:9f:7d:78:dd:ac:04:
                    0a:cb:a1:5b:43:f4:32:a2:79:2a:5f:d5:1b:a0:a4:
                    35:d5:9a:a6:95:7a:cf:4a:b1:1f:34:58:82:82:14:
                    4b:ec:9c:db:f8:63:da:5f:1e:3a:4f:ab:95:f6:e5:
                    e4:4f:63:b0:40:e7:49:23:3c:e3:d8:c7:d9:cc:79:
                    2e:20:8a:b0:a8:16:6a:2a:6d:0e:5b:b1:88:3c:8e:
                    d1:dc:6a:a1:a2:36:44:0d:1d:e5:97:64:2e:4d:d1:
                    d9:d0:39:c6:d2:05:f4:3e:19:63:32:02:26:9f:69:
                    86:03:c4:79:f7:39:1b:dd:17:c0:d6:8d:00:1d:90:
                    33:26:80:82:64:8a:73:39:c2:2c:77:3c:fc:8c:9d:
                    8e:1f:5f:55:6b:96:52:f3:41:d4:34:65:b7:da:74:
                    68:d6:f0:fe:a3:b9:63:c8:73:bb:ac:87:71:ff:8c:
                    d7:00:49:e2:7e:8a:73:40:92:4c:6a:60:45:5e:fb:
                    56:60:f5:8b:6c:85:b2:68:33:56:16:6d:5b:18:5c:
                    9f:d7:4b:2b:99:93:6f:80:c8:a7:85:b5:16:24:24:
                    77:a4:b5:5b:18:5f:66:5d:c0:0d:d4:3a:af:ed:22:
                    35:82:6b:c3:66:5c:c6:9d:66:f9:ba:5a:50:ae:11:
                    fe:35:a3:ae:db:ca:e6:1b:a0:ee:52:98:d0:d5:5d:
                    d2:f3:7f:23:92:ea:76:f6:00:75:37:d7:eb:7b:22:
                    bb:bc:bb:f4:5c:03:bb:6f:03:eb:96:53:af:6e:ee:
                    2d:d4:90:77:a7:3d:1b:39:70:b3:9f:f9:0c:ca:b1:
                    a7:da:49
                Exponent: 65537 (0x10001)
        X509v3 extensions:
            X509v3 Basic Constraints: 
                CA:FALSE
            X509v3 Key Usage: 
                Digital Signature, Non Repudiation, Key Encipherment, Data Encipherment, Key Agreement
            Netscape Comment: 
                OpenSSL Generated Certificate
            X509v3 Subject Key Identifier: 
                5C:0B:0A:FA:7B:31:A2:66:AE:48:60:75:D9:45:36:05:33:CA:80:17
            X509v3 Authority Key Identifier: 
                95:44:68:92:37:9C:A8:60:D5:DF:17:40:74:78:0A:CA:D7:CF:E5:C7
            X509v3 CRL Distribution Points: 
                Full Name:
                  URI:http://192.168.21.89/rootcrl.pem
    Signature Algorithm: sha1WithRSAEncryption
    Signature Value:
        13:40:b8:66:dd:b7:da:62:36:fb:33:01:7e:78:33:73:ee:be:
        64:31:6b:49:12:62:ff:b4:57:63:fd:22:00:16:16:ef:29:d2:
        94:b9:95:7a:f9:81:43:fb:ab:92:6c:4f:54:8e:bf:11:36:7b:
        0e:47:d6:0e:38:d6:8e:25:f6:a9:2a:ce:c0:02:0e:f3:8e:1f:
        18:08:1a:82:f0:ef:b2:a6:cf:5d:ef:89:c4:be:8e:9f:51:4b:
        34:d5:97:02:e1:c5:ae:c3:12:bb:43:9c:e2:63:51:f9:39:2a:
        cf:de:f4:67:a1:3c:34:20:76:fd:ad:e4:e8:1b:ff:8a:5e:14:
        c6:dd:bb:4b:22:a6:5c:e3:fe:aa:d4:b8:bb:b8:9d:ff:30:6a:
        16:70:cd:6a:a7:51:58:0f:ee:33:7f:e5:aa:2e:45:c9:8d:3f:
        d2:67:27:ab:eb:82:fd:1f:2c:6a:f9:69:5c:60:49:9d:90:8c:
        0d:88:d0:b6:27:4c:5d:0c:2c:50:a9:09:90:bb:02:65:8c:a6:
        f5:2b:63:5a:04:9c:3f:22:86:bb:a2:72:4b:01:1e:58:84:53:
        e7:e2:b6:73:e5:f6:d0:d3:3f:f8:b9:12:0f:38:ff:f0:dc:f2:
        00:32:e7:fc:4b:21:61:d8:7b:15:da:17:a4:b0:6d:3c:e0:c5:
        c9:9b:b5:78:b7:8e:c4:f5:e5:92:35:f2:a2:34:cc:ba:2a:c1:
        76:b2:7a:18:e1:59:79:6c:1d:a3:5f:ce:0d:4a:d9:aa:f1:51:
        81:ea:e5:48:21:b4:f8:e8:8c:a8:9e:9e:9f:ab:e1:4a:0f:39:
        32:e7:b5:51:4b:13:c9:03:cd:7a:d5:eb:f6:63:2f:21:8e:39:
        c7:93:28:d9:f1:b6:aa:ff:e1:e1:4e:d6:99:d2:00:9c:34:2e:
        4d:d2:4d:c2:3d:61:18:5a:0c:3a:20:a8:9a:e2:1a:74:9c:66:
        09:04:bf:b3:a4:ea:b2:0f:3b:5b:8a:0a:73:4e:e8:10:05:65:
        40:b2:52:8c:17:9d:4f:53:8c:4e:de:dc:96:ae:2b:44:f4:b4:
        e5:18:9a:b8:bb:b8:c9:d3:26:99:90:d7:92:36:61:0d:2e:96:
        cf:8f:ae:7a:d1:90:db:14:5f:42:7a:21:25:d6:96:38:ff:15:
        8a:a4:f2:ab:04:9f:17:f5:65:55:74:54:8c:f6:b3:62:0a:61:
        e1:64:8d:48:f8:e8:b5:9e:41:13:80:4b:84:51:3d:ab:92:c7:
        c4:e2:89:71:2f:7a:9d:68:7f:d5:b3:1a:27:60:80:c1:f0:4d:
        fc:d0:bf:c7:f5:f3:3e:d8:76:4b:2f:3e:b6:26:ca:ef:56:fb:
        83:89:52:94:34:9b:be:26
-----BEGIN CERTIFICATE-----
MIIGdDCCBFygAwIBAgIBBzANBgkqhkiG9w0BAQUFADCBvTELMAkGA1UEBhMCQkEx
CzAJBgNVBAgTAlJTMRMwEQYDVQQHEwpCYW5qYSBMdWthMSEwHwYDVQQKExhFbGVr
dHJvdGVobmlja2kgZmFrdWx0ZXQxIjAgBgNVBAoTGVVuaXZlcnppdGV0IHUgQmFu
am9qIEx1Y2kxDDAKBgNVBAsTA0VURjELMAkGA1UEAxMCQ0ExGjAYBgkqhkiG9w0B
CQEWC2NhQG1haWwuY29tMQ4wDAYDVQQMEwVQcm9mLjAeFw0yNTAzMDkxNzIyMzRa
Fw0zNTAzMDcxNzIyMzRaMH4xCzAJBgNVBAYTAkJBMQswCQYDVQQIEwJSUzEhMB8G
A1UEChMYRWxla3Ryb3RlaG5pY2tpIGZha3VsdGV0MQwwCgYDVQQLEwNFVEYxEDAO
BgNVBAMTB2NsaWVudDcxHzAdBgkqhkiG9w0BCQEWEGNsaWVudDdAbWFpbC5jb20w
ggIiMA0GCSqGSIb3DQEBAQUAA4ICDwAwggIKAoICAQCzDOoOoEG/PuihRw3cjCeO
mtXJz9BEAHZK270JtWWFrI9+ecLZAi/N1sO3AxaXIMS1E4xrY8o9819NcPYFjp1h
dXl0sHDDF2Jr0EgUhmb8SY/pGtC+T3Z/g+AgbqQxM5XLb5iYxMb3rjHnTMVNSJ4J
6zEfSTod8rjbjXRJoYfSdbFnli55cE1OhNL4gwcuET9p63zYzT923issdEktZKoD
ZndiV7uvlJFKJaMWdS5XZmixULeEo8hXLEH7xcfUOUHDQFid6PoAAyyFJp99eN2s
BArLoVtD9DKieSpf1RugpDXVmqaVes9KsR80WIKCFEvsnNv4Y9pfHjpPq5X25eRP
Y7BA50kjPOPYx9nMeS4girCoFmoqbQ5bsYg8jtHcaqGiNkQNHeWXZC5N0dnQOcbS
BfQ+GWMyAiafaYYDxHn3ORvdF8DWjQAdkDMmgIJkinM5wix3PPyMnY4fX1VrllLz
QdQ0ZbfadGjW8P6juWPIc7ush3H/jNcASeJ+inNAkkxqYEVe+1Zg9YtshbJoM1YW
bVsYXJ/XSyuZk2+AyKeFtRYkJHektVsYX2ZdwA3UOq/tIjWCa8NmXMadZvm6WlCu
Ef41o67byuYboO5SmNDVXdLzfyOS6nb2AHU31+t7Iru8u/RcA7tvA+uWU69u7i3U
kHenPRs5cLOf+QzKsafaSQIDAQABo4G8MIG5MAkGA1UdEwQCMAAwCwYDVR0PBAQD
AgP4MCwGCWCGSAGG+EIBDQQfFh1PcGVuU1NMIEdlbmVyYXRlZCBDZXJ0aWZpY2F0
ZTAdBgNVHQ4EFgQUXAsK+nsxomauSGB12UU2BTPKgBcwHwYDVR0jBBgwFoAUlURo
kjecqGDV3xdAdHgKytfP5ccwMQYDVR0fBCowKDAmoCSgIoYgaHR0cDovLzE5Mi4x
NjguMjEuODkvcm9vdGNybC5wZW0wDQYJKoZIhvcNAQEFBQADggIBABNAuGbdt9pi
NvszAX54M3PuvmQxa0kSYv+0V2P9IgAWFu8p0pS5lXr5gUP7q5JsT1SOvxE2ew5H
1g441o4l9qkqzsACDvOOHxgIGoLw77Kmz13vicS+jp9RSzTVlwLhxa7DErtDnOJj
Ufk5Ks/e9GehPDQgdv2t5Ogb/4peFMbdu0siplzj/qrUuLu4nf8wahZwzWqnUVgP
7jN/5aouRcmNP9JnJ6vrgv0fLGr5aVxgSZ2QjA2I0LYnTF0MLFCpCZC7AmWMpvUr
Y1oEnD8ihruicksBHliEU+fitnPl9tDTP/i5Eg84//Dc8gAy5/xLIWHYexXaF6Sw
bTzgxcmbtXi3jsT15ZI18qI0zLoqwXayehjhWXlsHaNfzg1K2arxUYHq5UghtPjo
jKienp+r4UoPOTLntVFLE8kDzXrV6/ZjLyGOOceTKNnxtqr/4eFO1pnSAJw0Lk3S
TcI9YRhaDDogqJriGnScZgkEv7Ok6rIPO1uKCnNO6BAFZUCyUowXnU9TjE7e3Jau
K0T0tOUYmri7uMnTJpmQ15I2YQ0uls+PrnrRkNsUX0J6ISXWljj/FYqk8qsEnxf1
ZVV0VIz2s2IKYeFkjUj46LWeQROAS4RRPauSx8TiiXEvep1of9WzGidggMHwTfzQ
v8f18z7YdksvPrYmyu9W+4OJUpQ0m74m
-----END CERTIFICATE-----
