Certificate:
    Data:
        Version: 3 (0x2)
        Serial Number: 10 (0xa)
        Signature Algorithm: sha1WithRSAEncryption
        Issuer: C=BA, ST=RS, L=Banja Luka, O=Elektrotehnicki fakultet, O=Univerzitet u Banjoj Luci, OU=ETF, CN=CA/emailAddress=ca@mail.com/title=Prof.
        Validity
            Not Before: Mar  9 17:25:01 2025 GMT
            Not After : Mar  7 17:25:01 2035 GMT
        Subject: C=BA, ST=RS, O=Elektrotehnicki fakultet, OU=ETF, CN=client10/emailAddress=client10@mail.com
        Subject Public Key Info:
            Public Key Algorithm: rsaEncryption
                Public-Key: (4096 bit)
                Modulus:
                    00:8e:a8:a1:82:1d:d2:70:42:e7:32:4a:03:a5:4d:
                    cb:96:7b:b8:ab:26:42:84:68:d4:35:0f:21:60:52:
                    1b:ee:7d:ae:f0:f7:7e:76:b5:42:f7:f1:70:18:21:
                    f2:0e:bb:65:27:9d:db:27:6d:ea:08:32:99:eb:9d:
                    b3:63:8f:e8:78:45:f9:de:c4:e6:df:72:d4:af:9f:
                    f1:83:84:e8:eb:10:ef:e1:a7:e5:0b:d0:de:35:93:
                    d7:79:f7:3e:0c:01:0e:bd:3e:cb:8e:ce:6f:f6:af:
                    c6:1a:e8:bc:fe:34:57:49:9d:9a:bc:31:30:d9:bd:
                    d3:3c:0e:52:c0:f2:2f:74:e5:9c:33:6c:8a:9c:36:
                    f3:f2:ae:d8:92:ac:ff:6a:3c:c3:b5:c0:7b:1c:25:
                    e4:62:5e:b7:b4:7a:8c:8e:89:fc:7c:e0:d0:ac:1b:
                    e8:6f:4f:20:5d:53:34:3b:70:73:41:41:44:9a:1e:
                    34:6a:c0:82:25:05:55:e3:58:c3:29:1d:b5:15:d2:
                    b2:a4:1c:ba:a3:ff:a6:79:ae:51:b7:c0:53:5b:54:
                    91:d6:0e:b5:41:9f:82:76:02:4e:f0:8b:e9:39:27:
                    44:58:f1:51:74:08:e0:28:1f:22:74:0e:8a:fb:07:
                    74:c0:0e:44:28:ad:2d:cd:bb:f4:0b:92:fe:bb:5e:
                    20:d5:e8:80:d9:68:49:96:21:41:0e:e4:95:23:2c:
                    d9:26:a0:9d:5e:e3:f8:a0:ab:09:9d:ac:22:99:9f:
                    61:51:ca:9f:7a:b7:ab:0d:8d:62:27:75:62:be:43:
                    ee:41:08:dc:de:66:0e:db:fc:76:53:00:75:24:ec:
                    74:f1:42:5b:5e:c2:0c:b2:29:fa:69:f2:91:2d:57:
                    68:a9:74:e3:de:1a:ee:ad:1c:2f:19:3a:e1:1f:fb:
                    6b:ac:60:a9:98:d4:e4:14:38:f8:51:5a:d0:f2:1a:
                    7d:c2:25:79:77:a6:79:f6:0c:60:4f:31:93:84:b1:
                    9f:a5:48:b2:6f:64:f2:03:71:92:d1:14:a6:3b:dc:
                    01:fe:2a:1d:c0:8a:fd:a5:12:49:45:ab:04:ed:f2:
                    1c:96:51:26:54:48:62:0d:77:5f:eb:b7:10:6f:0a:
                    dd:65:dc:cf:2a:51:61:92:ae:a6:eb:16:10:e6:a3:
                    c3:c2:0a:8e:e8:fc:11:36:fe:4e:87:7f:6b:59:70:
                    22:db:3f:e5:24:23:70:34:db:96:f0:ae:cd:6e:77:
                    01:a5:dd:0b:c4:a7:45:4c:92:1f:bb:55:4a:9e:f6:
                    4f:51:4b:7a:19:89:e2:14:96:cf:7f:4c:30:17:3f:
                    cd:68:f6:b2:28:c5:14:4d:6a:f2:a3:23:e8:d4:1a:
                    c0:e6:23
                Exponent: 65537 (0x10001)
        X509v3 extensions:
            X509v3 Basic Constraints: 
                CA:FALSE
            X509v3 Key Usage: 
                Digital Signature, Non Repudiation, Key Encipherment, Data Encipherment, Key Agreement
            Netscape Comment: 
                OpenSSL Generated Certificate
            X509v3 Subject Key Identifier: 
                13:82:6B:21:C5:C8:4B:AE:83:E6:4F:5B:32:D9:BA:F9:6F:ED:AE:EF
            X509v3 Authority Key Identifier: 
                95:44:68:92:37:9C:A8:60:D5:DF:17:40:74:78:0A:CA:D7:CF:E5:C7
            X509v3 CRL Distribution Points: 
                Full Name:
                  URI:http://192.168.21.89/rootcrl.pem
    Signature Algorithm: sha1WithRSAEncryption
    Signature Value:
        45:6c:5d:80:2a:84:e0:1e:97:df:ed:f0:be:ea:8d:37:ff:b9:
        40:13:ce:a2:8f:93:87:f3:aa:76:81:77:5e:08:c4:c5:68:05:
        69:0c:d6:3c:19:ef:e4:59:8a:c7:08:69:2e:53:39:12:6e:45:
        ab:d8:1e:a2:1d:02:03:17:f5:06:71:1f:66:c1:3c:d4:0b:e4:
        0c:fc:15:b2:ca:9d:ca:e8:82:47:2d:be:66:db:84:28:13:a8:
        6e:79:7d:55:e0:97:98:a4:73:42:81:44:c4:8d:ed:fc:5a:c1:
        c1:01:4c:ae:a1:19:b3:24:86:fe:95:8f:50:05:70:c9:5d:f8:
        bb:08:b9:9b:ce:7c:10:95:61:78:74:fa:d1:5b:08:03:4e:2e:
        38:d2:89:ae:57:3c:45:83:13:8d:37:8a:99:4a:c6:8f:e8:e0:
        a7:f7:8a:b6:96:c9:d8:19:7f:d9:cc:d4:3e:8a:f1:10:7b:89:
        e4:c0:66:b3:a1:41:f6:4a:57:ee:ed:8b:64:ec:b1:f4:e0:87:
        79:c9:f7:69:08:ac:ad:a5:32:13:41:7a:5c:ea:76:0d:e3:69:
        e3:ee:9b:a0:a5:43:2a:d9:e9:9b:a5:6e:3a:d8:39:3e:99:ee:
        cd:2f:23:b0:b1:8e:3d:42:b7:41:1e:57:06:ff:95:30:1b:b5:
        81:50:9b:6a:c9:f3:db:63:1d:bc:0d:52:aa:c4:fd:17:80:29:
        44:ae:9b:87:ad:1e:1b:8e:10:47:c0:59:6b:b7:f7:1f:84:75:
        84:4d:9e:e7:a3:87:5b:d4:1b:e7:b8:36:f0:0e:35:30:b5:a1:
        f1:87:c1:d2:ef:d2:ef:80:9a:79:7f:38:44:d5:7a:c0:9d:11:
        5c:ad:f4:f9:bd:f6:cb:89:59:0d:57:7c:5d:07:61:d0:7a:07:
        e3:bc:99:a7:a1:7d:62:7a:df:77:ea:a7:4f:84:4c:ba:a4:55:
        5e:84:ec:6b:68:21:4f:4b:3c:fb:9a:ea:39:d4:a9:60:fc:45:
        34:c9:9b:dd:0d:35:99:89:73:8b:a2:54:a5:28:f8:be:8a:c4:
        d7:31:11:a4:89:68:b5:58:02:34:87:e9:d4:2e:ae:1a:82:43:
        70:dd:f0:25:b9:30:3f:b0:77:a4:60:b2:be:04:a1:4f:f1:0b:
        d1:be:6c:7c:09:02:f2:70:cd:70:78:11:a9:92:01:05:8d:b7:
        88:ca:43:85:ad:9b:e7:05:05:52:f0:c8:33:84:05:94:99:d7:
        4c:e8:6c:1f:4b:bd:32:74:21:46:72:64:08:59:f2:5b:71:1e:
        16:bb:48:90:e8:9a:a8:51:99:6a:b8:2f:3d:80:69:f5:e0:9a:
        71:41:d5:9d:6e:60:1e:e0
-----BEGIN CERTIFICATE-----
MIIGdzCCBF+gAwIBAgIBCjANBgkqhkiG9w0BAQUFADCBvTELMAkGA1UEBhMCQkEx
CzAJBgNVBAgTAlJTMRMwEQYDVQQHEwpCYW5qYSBMdWthMSEwHwYDVQQKExhFbGVr
dHJvdGVobmlja2kgZmFrdWx0ZXQxIjAgBgNVBAoTGVVuaXZlcnppdGV0IHUgQmFu
am9qIEx1Y2kxDDAKBgNVBAsTA0VURjELMAkGA1UEAxMCQ0ExGjAYBgkqhkiG9w0B
CQEWC2NhQG1haWwuY29tMQ4wDAYDVQQMEwVQcm9mLjAeFw0yNTAzMDkxNzI1MDFa
Fw0zNTAzMDcxNzI1MDFaMIGAMQswCQYDVQQGEwJCQTELMAkGA1UECBMCUlMxITAf
BgNVBAoTGEVsZWt0cm90ZWhuaWNraSBmYWt1bHRldDEMMAoGA1UECxMDRVRGMREw
DwYDVQQDEwhjbGllbnQxMDEgMB4GCSqGSIb3DQEJARYRY2xpZW50MTBAbWFpbC5j
b20wggIiMA0GCSqGSIb3DQEBAQUAA4ICDwAwggIKAoICAQCOqKGCHdJwQucySgOl
TcuWe7irJkKEaNQ1DyFgUhvufa7w9352tUL38XAYIfIOu2UnndsnbeoIMpnrnbNj
j+h4RfnexObfctSvn/GDhOjrEO/hp+UL0N41k9d59z4MAQ69PsuOzm/2r8Ya6Lz+
NFdJnZq8MTDZvdM8DlLA8i905ZwzbIqcNvPyrtiSrP9qPMO1wHscJeRiXre0eoyO
ifx84NCsG+hvTyBdUzQ7cHNBQUSaHjRqwIIlBVXjWMMpHbUV0rKkHLqj/6Z5rlG3
wFNbVJHWDrVBn4J2Ak7wi+k5J0RY8VF0COAoHyJ0Dor7B3TADkQorS3Nu/QLkv67
XiDV6IDZaEmWIUEO5JUjLNkmoJ1e4/igqwmdrCKZn2FRyp96t6sNjWIndWK+Q+5B
CNzeZg7b/HZTAHUk7HTxQltewgyyKfpp8pEtV2ipdOPeGu6tHC8ZOuEf+2usYKmY
1OQUOPhRWtDyGn3CJXl3pnn2DGBPMZOEsZ+lSLJvZPIDcZLRFKY73AH+Kh3Aiv2l
EklFqwTt8hyWUSZUSGINd1/rtxBvCt1l3M8qUWGSrqbrFhDmo8PCCo7o/BE2/k6H
f2tZcCLbP+UkI3A025bwrs1udwGl3QvEp0VMkh+7VUqe9k9RS3oZieIUls9/TDAX
P81o9rIoxRRNavKjI+jUGsDmIwIDAQABo4G8MIG5MAkGA1UdEwQCMAAwCwYDVR0P
BAQDAgP4MCwGCWCGSAGG+EIBDQQfFh1PcGVuU1NMIEdlbmVyYXRlZCBDZXJ0aWZp
Y2F0ZTAdBgNVHQ4EFgQUE4JrIcXIS66D5k9bMtm6+W/tru8wHwYDVR0jBBgwFoAU
lURokjecqGDV3xdAdHgKytfP5ccwMQYDVR0fBCowKDAmoCSgIoYgaHR0cDovLzE5
Mi4xNjguMjEuODkvcm9vdGNybC5wZW0wDQYJKoZIhvcNAQEFBQADggIBAEVsXYAq
hOAel9/t8L7qjTf/uUATzqKPk4fzqnaBd14IxMVoBWkM1jwZ7+RZiscIaS5TORJu
RavYHqIdAgMX9QZxH2bBPNQL5Az8FbLKncrogkctvmbbhCgTqG55fVXgl5ikc0KB
RMSN7fxawcEBTK6hGbMkhv6Vj1AFcMld+LsIuZvOfBCVYXh0+tFbCANOLjjSia5X
PEWDE403iplKxo/o4Kf3iraWydgZf9nM1D6K8RB7ieTAZrOhQfZKV+7ti2TssfTg
h3nJ92kIrK2lMhNBelzqdg3jaePum6ClQyrZ6ZulbjrYOT6Z7s0vI7Cxjj1Ct0Ee
Vwb/lTAbtYFQm2rJ89tjHbwNUqrE/ReAKUSum4etHhuOEEfAWWu39x+EdYRNnuej
h1vUG+e4NvAONTC1ofGHwdLv0u+Amnl/OETVesCdEVyt9Pm99suJWQ1XfF0HYdB6
B+O8maehfWJ633fqp0+ETLqkVV6E7GtoIU9LPPua6jnUqWD8RTTJm90NNZmJc4ui
VKUo+L6KxNcxEaSJaLVYAjSH6dQurhqCQ3Dd8CW5MD+wd6Rgsr4EoU/xC9G+bHwJ
AvJwzXB4EamSAQWNt4jKQ4Wtm+cFBVLwyDOEBZSZ10zobB9LvTJ0IUZyZAhZ8ltx
Hha7SJDomqhRmWq4Lz2AafXgmnFB1Z1uYB7g
-----END CERTIFICATE-----
