Certificate:
    Data:
        Version: 3 (0x2)
        Serial Number: 12 (0xc)
        Signature Algorithm: sha1WithRSAEncryption
        Issuer: C=SR, O=Faculty of Electrical Engineering, OU=CA_EE, CN=CAtijelo/emailAddress=CA@mail.com/title=CA
        Validity
            Not Before: Apr 15 09:37:14 2025 GMT
            Not After : May 15 09:37:14 2025 GMT
        Subject: C=SR, O=Faculty of Electrical Engineering, OU=CA_EE, CN=client12
        Subject Public Key Info:
            Public Key Algorithm: rsaEncryption
                Public-Key: (2048 bit)
                Modulus:
                    00:a9:9c:b8:90:e6:80:c2:ea:32:c3:06:08:fb:61:
                    4a:c3:bd:ab:40:53:2d:7b:33:30:8c:8a:ad:6a:bd:
                    5e:71:b6:86:04:6d:4c:90:72:5a:8f:e4:68:64:55:
                    14:56:a3:55:49:6c:1b:19:e3:6c:3e:6a:53:e5:75:
                    76:d8:d0:9f:8e:06:80:3d:fd:71:af:dc:61:0e:95:
                    99:1a:e8:29:46:c1:5e:6f:f0:e9:ac:7b:fb:ea:8b:
                    30:1d:65:68:96:a0:6c:4c:55:d6:e7:c3:2d:7b:08:
                    be:9f:44:86:0e:fe:13:2b:b8:48:dc:b3:1c:b4:a4:
                    01:58:a4:9b:47:c6:94:00:f3:86:6c:8b:ee:df:66:
                    a4:30:cc:1d:40:e8:3c:5c:33:b8:ab:80:12:47:a3:
                    bd:4f:56:86:24:9d:c9:63:fa:1b:6e:27:8c:cd:5e:
                    99:70:56:5e:dc:c0:21:26:ed:fa:dc:56:07:2a:18:
                    95:98:7a:49:47:2f:60:bd:16:77:21:45:1b:4a:38:
                    cc:5b:41:df:bd:bd:68:a1:95:01:9d:5d:ef:fe:76:
                    ce:9c:d8:3a:cd:81:25:a7:2f:0c:76:0f:8c:60:ba:
                    3e:2d:db:c8:c4:da:94:f2:b8:00:f5:19:c1:d7:f9:
                    80:71:58:82:12:14:d8:88:af:dd:45:e1:16:ff:6f:
                    1e:ff
                Exponent: 65537 (0x10001)
        X509v3 extensions:
            X509v3 Basic Constraints: 
                CA:TRUE
            X509v3 Key Usage: 
                Digital Signature
            Netscape Comment: 
                OpenSSL Generated Certificate
            X509v3 Subject Key Identifier: 
                22:85:3B:27:3A:5B:14:60:BB:C8:3F:5C:19:48:50:1B:79:7C:76:6B
            X509v3 Authority Key Identifier: 
                74:8E:53:9F:BF:47:75:78:FC:52:01:8D:CC:5F:9F:3C:04:9D:18:BE
            X509v3 CRL Distribution Points: 
                Full Name:
                  URI:http://192.168.21.89/rootcrl.pem
    Signature Algorithm: sha1WithRSAEncryption
    Signature Value:
        aa:72:7b:59:b3:36:28:d0:18:80:8c:a0:59:d0:92:ff:ae:28:
        66:11:5a:ad:fc:6d:57:10:ef:50:48:ed:53:2c:c4:22:2d:64:
        22:b4:18:b5:bc:2c:3b:31:7b:d4:ba:50:19:84:24:0e:21:f3:
        8c:ca:ed:d3:a9:54:2b:68:e3:28:44:3b:a2:ea:b8:fa:e6:e1:
        02:2b:4c:31:ab:cc:ac:5d:9a:92:de:60:8a:8b:bc:2f:4d:93:
        0b:b4:be:9d:24:e5:36:d6:f5:0f:5f:7f:80:5f:53:a0:98:4f:
        28:dc:63:e0:9f:1d:a0:7e:a6:ff:5f:66:ff:ba:93:6d:18:73:
        c7:cf:2e:6a:c0:97:3e:01:f9:ac:c4:17:73:7a:82:46:a6:e6:
        65:85:08:00:3d:cb:1f:cc:aa:ad:ff:3e:e8:dc:db:c2:38:39:
        9c:69:a0:41:18:01:2c:6d:49:2d:5e:80:a5:92:6a:68:9c:3d:
        c6:e0:98:ad:05:fb:79:6a:ae:f8:3a:ae:53:d8:af:1b:07:01:
        34:10:7d:ac:44:22:12:62:5f:c9:a3:69:7c:3a:d9:08:66:4f:
        09:8d:54:5e:b9:2c:3a:32:ff:3a:d5:26:e2:8b:08:79:db:38:
        9d:fb:ce:d6:ef:60:f5:81:3f:d1:06:e5:3f:9b:4e:e3:e2:47:
        3a:ba:c3:14:e3:4c:bb:16:0b:f8:b6:e6:b2:c8:34:25:2f:a7:
        9e:76:5f:86:f3:57:c7:ad:8e:88:48:c3:1f:bb:42:9e:84:92:
        7e:fa:d1:8d:63:75:fb:82:71:e3:4a:cf:ca:e1:32:e1:b9:53:
        bd:c8:d5:d1:d1:08:4f:96:ca:82:8b:28:2b:5f:be:2e:92:60:
        8f:06:cd:df:c3:fd:23:90:5b:a3:e9:10:71:b3:4c:53:b6:7a:
        45:6b:05:77:28:f7:33:c8:2b:52:1a:c8:81:24:67:02:73:ab:
        0c:af:f2:76:20:f9:0d:f5:d3:52:75:5d:05:d1:85:59:02:ec:
        6b:5c:b1:ff:f5:a9:34:4d:54:c3:e8:67:35:72:30:0d:b2:e9:
        c9:cd:fc:31:76:37:60:02:82:b0:0a:76:48:d5:05:e3:f0:04:
        10:aa:2d:96:a0:ae:a9:ee:48:ff:32:a1:49:02:04:95:d6:bc:
        ac:b8:02:33:62:58:71:34:08:25:15:53:f1:a1:b3:6c:9f:00:
        9c:4c:15:c4:04:a5:18:a9:cb:13:e9:c9:a0:63:dd:15:51:eb:
        ae:ea:cb:e1:b3:20:83:e3:f7:0d:11:6d:5d:dd:83:33:a0:fd:
        0f:4e:49:7e:de:f6:a5:29:74:1c:22:ce:fc:f3:8a:b7:ec:43:
        58:95:4a:b5:df:65:08:31
-----BEGIN CERTIFICATE-----
MIIFHTCCAwWgAwIBAgIBDDANBgkqhkiG9w0BAQUFADCBhTELMAkGA1UEBhMCU1Ix
KjAoBgNVBAoTIUZhY3VsdHkgb2YgRWxlY3RyaWNhbCBFbmdpbmVlcmluZzEOMAwG
A1UECxQFQ0FfRUUxETAPBgNVBAMTCENBdGlqZWxvMRowGAYJKoZIhvcNAQkBFgtD
QUBtYWlsLmNvbTELMAkGA1UEDBMCQ0EwHhcNMjUwNDE1MDkzNzE0WhcNMjUwNTE1
MDkzNzE0WjBcMQswCQYDVQQGEwJTUjEqMCgGA1UEChMhRmFjdWx0eSBvZiBFbGVj
dHJpY2FsIEVuZ2luZWVyaW5nMQ4wDAYDVQQLFAVDQV9FRTERMA8GA1UEAxMIY2xp
ZW50MTIwggEiMA0GCSqGSIb3DQEBAQUAA4IBDwAwggEKAoIBAQCpnLiQ5oDC6jLD
Bgj7YUrDvatAUy17MzCMiq1qvV5xtoYEbUyQclqP5GhkVRRWo1VJbBsZ42w+alPl
dXbY0J+OBoA9/XGv3GEOlZka6ClGwV5v8Omse/vqizAdZWiWoGxMVdbnwy17CL6f
RIYO/hMruEjcsxy0pAFYpJtHxpQA84Zsi+7fZqQwzB1A6DxcM7irgBJHo71PVoYk
nclj+htuJ4zNXplwVl7cwCEm7frcVgcqGJWYeklHL2C9FnchRRtKOMxbQd+9vWih
lQGdXe/+ds6c2DrNgSWnLwx2D4xguj4t28jE2pTyuAD1GcHX+YBxWIISFNiIr91F
4Rb/bx7/AgMBAAGjgb8wgbwwDAYDVR0TBAUwAwEB/zALBgNVHQ8EBAMCB4AwLAYJ
YIZIAYb4QgENBB8WHU9wZW5TU0wgR2VuZXJhdGVkIENlcnRpZmljYXRlMB0GA1Ud
DgQWBBQihTsnOlsUYLvIP1wZSFAbeXx2azAfBgNVHSMEGDAWgBR0jlOfv0d1ePxS
AY3MX588BJ0YvjAxBgNVHR8EKjAoMCagJKAihiBodHRwOi8vMTkyLjE2OC4yMS44
OS9yb290Y3JsLnBlbTANBgkqhkiG9w0BAQUFAAOCAgEAqnJ7WbM2KNAYgIygWdCS
/64oZhFarfxtVxDvUEjtUyzEIi1kIrQYtbwsOzF71LpQGYQkDiHzjMrt06lUK2jj
KEQ7ouq4+ubhAitMMavMrF2akt5giou8L02TC7S+nSTlNtb1D19/gF9ToJhPKNxj
4J8doH6m/19m/7qTbRhzx88uasCXPgH5rMQXc3qCRqbmZYUIAD3LH8yqrf8+6Nzb
wjg5nGmgQRgBLG1JLV6ApZJqaJw9xuCYrQX7eWqu+DquU9ivGwcBNBB9rEQiEmJf
yaNpfDrZCGZPCY1UXrksOjL/OtUm4osIeds4nfvO1u9g9YE/0QblP5tO4+JHOrrD
FONMuxYL+Lbmssg0JS+nnnZfhvNXx62OiEjDH7tCnoSSfvrRjWN1+4Jx40rPyuEy
4blTvcjV0dEIT5bKgosoK1++LpJgjwbN38P9I5Bbo+kQcbNMU7Z6RWsFdyj3M8gr
UhrIgSRnAnOrDK/ydiD5DfXTUnVdBdGFWQLsa1yx//WpNE1Uw+hnNXIwDbLpyc38
MXY3YAKCsAp2SNUF4/AEEKotlqCuqe5I/zKhSQIElda8rLgCM2JYcTQIJRVT8aGz
bJ8AnEwVxASlGKnLE+nJoGPdFVHrrurL4bMgg+P3DRFtXd2DM6D9D05Jft72pSl0
HCLO/POKt+xDWJVKtd9lCDE=
-----END CERTIFICATE-----
