Certificate:
    Data:
        Version: 3 (0x2)
        Serial Number: 13 (0xd)
        Signature Algorithm: sha1WithRSAEncryption
        Issuer: C=BA, ST=RS, L=Banja Luka, O=Elektrotehnicki fakultet, O=Univerzitet u Banjoj Luci, OU=ETF, CN=CA/emailAddress=ca@mail.com/title=Prof.
        Validity
            Not Before: Apr 15 09:50:28 2025 GMT
            Not After : Apr 16 09:50:28 2025 GMT
        Subject: C=BA, ST=RS, O=Elektrotehnicki fakultet, OU=ETF, CN=client13/emailAddress=client13@mail.com
        Subject Public Key Info:
            Public Key Algorithm: rsaEncryption
                Public-Key: (2048 bit)
                Modulus:
                    00:d3:51:ed:1d:e1:2c:dd:ca:f6:bc:3c:14:d9:eb:
                    8b:e4:10:26:6f:2f:19:75:f5:6d:dd:88:5e:8e:f6:
                    b3:7d:d5:48:39:45:90:b0:6d:7f:06:99:40:c6:66:
                    ac:34:0e:3b:2b:eb:9b:c8:97:b7:36:d1:2c:f0:5d:
                    5a:ac:72:cd:ec:fd:49:e1:ae:0f:33:23:83:2e:7f:
                    36:0d:df:a8:0e:1a:d4:86:b2:05:0b:14:93:35:7e:
                    7b:b1:fb:7a:ac:62:f2:6b:c4:19:60:61:1b:94:56:
                    54:e1:e3:0f:66:bf:80:2d:f0:7a:26:6f:69:7e:15:
                    20:79:98:39:4c:ef:af:20:11:b6:af:35:c5:98:0a:
                    ce:c3:9b:95:7c:ef:e5:36:ab:30:74:63:ff:de:28:
                    93:91:c3:20:b4:9e:cd:e1:f9:ae:20:56:a9:62:a6:
                    72:64:a7:ad:ac:7a:7b:92:e1:16:37:98:3a:5f:a1:
                    4f:59:1b:90:a5:75:25:2f:0c:cf:7c:a3:5e:95:2f:
                    37:1c:84:dd:60:a8:5f:52:56:ec:2e:99:99:ad:f4:
                    8f:1e:9c:3d:f8:10:cc:5d:93:47:a3:1e:04:c3:40:
                    a3:d8:b8:75:48:02:49:8c:8a:54:0f:aa:2a:08:f8:
                    d3:61:d2:bc:9e:27:2b:c2:d4:08:30:0b:b8:3c:f0:
                    81:c9
                Exponent: 65537 (0x10001)
        X509v3 extensions:
            X509v3 Basic Constraints: 
                CA:FALSE
            X509v3 Key Usage: 
                Digital Signature, Non Repudiation, Key Encipherment, Data Encipherment, Key Agreement
            Netscape Comment: 
                OpenSSL Generated Certificate
            X509v3 Subject Key Identifier: 
                52:B7:E1:CA:DD:41:5A:34:02:A6:F7:C5:CD:8F:1B:4A:75:D7:D7:97
            X509v3 Authority Key Identifier: 
                95:44:68:92:37:9C:A8:60:D5:DF:17:40:74:78:0A:CA:D7:CF:E5:C7
            X509v3 CRL Distribution Points: 
                Full Name:
                  URI:http://192.168.21.89/rootcrl.pem
    Signature Algorithm: sha1WithRSAEncryption
    Signature Value:
        50:50:55:fb:5b:44:1b:f4:31:25:a3:e8:f5:82:c1:7a:ea:a9:
        c3:af:04:d7:f3:98:b6:fe:80:47:5b:ed:35:0a:7d:62:d6:02:
        49:40:19:1a:5c:a9:6b:43:21:b8:2c:0f:1a:1f:dc:72:2d:19:
        1e:7d:80:28:2d:7e:03:67:8a:4c:88:44:51:e9:ef:4c:08:1e:
        9e:d4:1e:f4:55:56:d6:1b:5a:d9:87:d5:7b:01:fe:c0:3d:fc:
        70:db:07:ed:11:55:9c:c6:a3:86:12:18:64:58:7e:22:64:d4:
        ce:c1:7d:83:e1:95:4b:fb:da:8d:44:22:6d:04:49:41:af:25:
        1f:2d:fb:69:17:aa:7e:b8:c6:c9:c1:49:ca:c9:d0:f3:39:16:
        3c:38:36:74:40:08:93:d0:80:20:66:e6:99:46:f4:e2:3e:59:
        47:eb:ed:f3:b8:11:8b:04:16:5a:a9:ff:cb:8e:a9:aa:7f:52:
        92:02:f4:49:43:9b:11:a9:0b:25:04:7a:60:41:be:dd:2a:3b:
        8a:af:92:d6:c4:77:b4:66:18:52:f7:79:ca:bb:69:4e:7a:dc:
        74:9c:d4:2f:9f:9b:c0:63:1d:62:bf:22:d0:1c:ac:7d:bc:c2:
        95:45:c4:b4:00:30:f4:21:88:da:53:63:ba:28:7e:70:b9:44:
        f0:cb:dd:fa:d1:63:60:d4:58:1a:9d:2c:20:93:f7:1c:c8:4a:
        58:54:1c:c5:b4:b5:1b:e6:e2:d3:5c:94:b5:32:97:bb:92:87:
        8f:18:70:ba:00:63:f4:84:a5:ec:91:f7:08:46:01:3c:5f:fc:
        7d:d1:fb:b3:4c:ab:fd:74:d4:a6:47:de:71:04:af:38:ab:f0:
        e8:9b:a4:df:3a:1b:1f:78:12:47:a9:b7:55:92:f2:ca:b4:09:
        58:63:fc:5b:0e:e3:d6:f2:d2:13:e9:d3:a4:0c:d1:f8:66:47:
        69:ba:f2:be:f5:3f:3a:3e:7e:e0:e8:ac:84:e0:03:79:20:3d:
        93:f1:46:5c:a1:41:d8:76:ae:26:1d:86:9a:c4:b9:f7:e5:8d:
        05:81:06:b7:01:dd:69:0f:79:e2:1a:46:5e:37:f0:06:6d:e8:
        44:04:61:23:62:ac:f3:08:ef:0b:be:4a:97:73:9c:ba:9d:e9:
        d4:f5:52:f8:3b:d3:48:4d:dc:3c:c9:ad:7a:38:5d:68:4e:33:
        91:22:be:2d:e7:6b:70:75:1f:f6:04:25:7f:26:6e:b7:16:9b:
        f1:42:4b:1a:44:f3:e3:ae:61:19:47:c4:64:8c:29:e6:34:64:
        d0:8d:d7:ab:e0:8f:6c:26:1f:f7:38:b0:58:7b:eb:e5:70:28:
        ca:38:88:93:a1:af:70:62
-----BEGIN CERTIFICATE-----
MIIFdzCCA1+gAwIBAgIBDTANBgkqhkiG9w0BAQUFADCBvTELMAkGA1UEBhMCQkEx
CzAJBgNVBAgTAlJTMRMwEQYDVQQHEwpCYW5qYSBMdWthMSEwHwYDVQQKExhFbGVr
dHJvdGVobmlja2kgZmFrdWx0ZXQxIjAgBgNVBAoTGVVuaXZlcnppdGV0IHUgQmFu
am9qIEx1Y2kxDDAKBgNVBAsTA0VURjELMAkGA1UEAxMCQ0ExGjAYBgkqhkiG9w0B
CQEWC2NhQG1haWwuY29tMQ4wDAYDVQQMEwVQcm9mLjAeFw0yNTA0MTUwOTUwMjha
Fw0yNTA0MTYwOTUwMjhaMIGAMQswCQYDVQQGEwJCQTELMAkGA1UECBMCUlMxITAf
BgNVBAoTGEVsZWt0cm90ZWhuaWNraSBmYWt1bHRldDEMMAoGA1UECxMDRVRGMREw
DwYDVQQDEwhjbGllbnQxMzEgMB4GCSqGSIb3DQEJARYRY2xpZW50MTNAbWFpbC5j
b20wggEiMA0GCSqGSIb3DQEBAQUAA4IBDwAwggEKAoIBAQDTUe0d4Szdyva8PBTZ
64vkECZvLxl19W3diF6O9rN91Ug5RZCwbX8GmUDGZqw0Djsr65vIl7c20SzwXVqs
cs3s/Unhrg8zI4MufzYN36gOGtSGsgULFJM1fnux+3qsYvJrxBlgYRuUVlTh4w9m
v4At8Homb2l+FSB5mDlM768gEbavNcWYCs7Dm5V87+U2qzB0Y//eKJORwyC0ns3h
+a4gVqlipnJkp62senuS4RY3mDpfoU9ZG5CldSUvDM98o16VLzcchN1gqF9SVuwu
mZmt9I8enD34EMxdk0ejHgTDQKPYuHVIAkmMilQPqioI+NNh0ryeJyvC1AgwC7g8
8IHJAgMBAAGjgbwwgbkwCQYDVR0TBAIwADALBgNVHQ8EBAMCA/gwLAYJYIZIAYb4
QgENBB8WHU9wZW5TU0wgR2VuZXJhdGVkIENlcnRpZmljYXRlMB0GA1UdDgQWBBRS
t+HK3UFaNAKm98XNjxtKddfXlzAfBgNVHSMEGDAWgBSVRGiSN5yoYNXfF0B0eArK
18/lxzAxBgNVHR8EKjAoMCagJKAihiBodHRwOi8vMTkyLjE2OC4yMS44OS9yb290
Y3JsLnBlbTANBgkqhkiG9w0BAQUFAAOCAgEAUFBV+1tEG/QxJaPo9YLBeuqpw68E
1/OYtv6AR1vtNQp9YtYCSUAZGlypa0MhuCwPGh/cci0ZHn2AKC1+A2eKTIhEUenv
TAgentQe9FVW1hta2YfVewH+wD38cNsH7RFVnMajhhIYZFh+ImTUzsF9g+GVS/va
jUQibQRJQa8lHy37aReqfrjGycFJysnQ8zkWPDg2dEAIk9CAIGbmmUb04j5ZR+vt
87gRiwQWWqn/y46pqn9SkgL0SUObEakLJQR6YEG+3So7iq+S1sR3tGYYUvd5yrtp
TnrcdJzUL5+bwGMdYr8i0BysfbzClUXEtAAw9CGI2lNjuih+cLlE8Mvd+tFjYNRY
Gp0sIJP3HMhKWFQcxbS1G+bi01yUtTKXu5KHjxhwugBj9ISl7JH3CEYBPF/8fdH7
s0yr/XTUpkfecQSvOKvw6Juk3zobH3gSR6m3VZLyyrQJWGP8Ww7j1vLSE+nTpAzR
+GZHabryvvU/Oj5+4OishOADeSA9k/FGXKFB2HauJh2GmsS59+WNBYEGtwHdaQ95
4hpGXjfwBm3oRARhI2Ks8wjvC75Kl3Ocup3p1PVS+DvTSE3cPMmtejhdaE4zkSK+
LedrcHUf9gQlfyZutxab8UJLGkTz465hGUfEZIwp5jRk0I3Xq+CPbCYf9ziwWHvr
5XAoyjiIk6GvcGI=
-----END CERTIFICATE-----
