Certificate:
    Data:
        Version: 3 (0x2)
        Serial Number: 11 (0xb)
        Signature Algorithm: sha1WithRSAEncryption
        Issuer: C=BA, ST=RS, L=Banja Luka, O=Elektrotehnicki fakultet, O=Univerzitet u Banjoj Luci, OU=ETF, CN=CA/emailAddress=ca@mail.com/title=Prof.
        Validity
            Not Before: Mar  9 17:25:53 2025 GMT
            Not After : Mar  9 17:25:53 2026 GMT
        Subject: C=BA, ST=RS, O=Elektrotehnicki fakultet, OU=ETF, CN=client11/emailAddress=client11@mail.com
        Subject Public Key Info:
            Public Key Algorithm: rsaEncryption
                Public-Key: (4096 bit)
                Modulus:
                    00:be:1e:71:b5:7b:dd:52:6a:a7:2b:7f:77:7a:86:
                    87:7f:82:e7:18:dc:67:ad:d1:a0:a9:74:13:d1:64:
                    92:5e:7b:48:45:32:5b:58:ab:23:33:b6:dd:7b:f3:
                    9b:3e:f8:f9:68:d5:32:f2:64:2b:d8:16:d1:23:77:
                    0d:67:58:e9:c3:d9:2a:37:b8:a2:e7:10:b7:5b:58:
                    44:13:7e:d1:5c:8c:b0:f1:7c:c2:ce:0f:5d:74:c0:
                    b1:e3:0d:83:bf:42:3f:e4:51:6d:c9:e3:0a:3e:e5:
                    3c:ee:dc:49:4a:b3:cc:80:9c:ea:bd:6c:5a:9e:66:
                    87:4e:6d:9f:e1:f3:2b:b6:31:5c:f8:0a:cb:ae:7d:
                    0e:b3:5b:87:13:03:fe:f7:23:e8:ca:83:be:e2:b1:
                    bc:5c:fe:14:7a:b8:ad:45:15:c6:94:59:2f:07:83:
                    03:d3:80:75:26:39:fb:21:bd:f2:90:11:1f:d6:c0:
                    5d:c1:7d:c0:13:49:f1:9d:c4:46:06:fb:85:ff:8a:
                    e8:1f:9e:43:ba:90:d4:23:c0:aa:85:99:59:fb:e6:
                    89:46:af:75:e1:22:37:6c:06:8f:1c:3c:f6:49:05:
                    fc:b8:e4:48:23:0b:c4:76:2a:46:1c:ca:ac:ca:92:
                    30:c5:27:03:5e:1f:25:12:c9:f0:dd:18:9f:42:30:
                    9d:f6:6d:03:71:e3:ca:71:3a:bb:3c:a6:cf:fd:a5:
                    e2:cd:98:71:80:ce:ae:dc:7b:cd:be:c7:2c:e3:e1:
                    58:3c:19:f5:bc:35:a9:bb:57:0d:d9:15:ec:5e:31:
                    01:97:cc:2f:47:1e:20:7c:79:25:dd:a0:23:60:fa:
                    f5:e1:db:98:ee:c1:0e:be:35:63:94:a8:c0:98:43:
                    ea:74:d5:e5:ba:1f:3f:a5:2e:3f:6e:53:56:ba:39:
                    18:1f:aa:45:7c:f5:c6:74:26:52:eb:6e:e7:ae:4e:
                    37:ae:06:3c:26:b5:7e:bc:2b:f0:de:7f:03:6c:5e:
                    95:6a:8f:c2:5d:2e:c7:a2:99:69:a1:b3:8a:29:63:
                    a3:66:e1:f2:6f:13:da:d9:6b:3b:c9:25:c5:a7:52:
                    d5:0e:f8:71:ff:a1:65:b5:3f:8d:c9:4a:09:29:63:
                    7b:40:6e:e2:f0:a0:e4:85:11:38:5d:e4:21:96:3f:
                    82:0c:a1:ad:70:1c:89:5b:12:1e:4f:07:86:a3:5a:
                    1b:08:b5:97:31:2e:0a:8f:c0:3a:4f:88:4c:ff:ed:
                    7b:87:88:a3:06:2e:f8:56:a5:2e:aa:35:f8:0d:be:
                    b1:58:e1:76:1e:55:64:cd:a5:c6:2c:95:67:0d:09:
                    1f:1b:f9:b7:22:bb:c2:c4:ac:df:bf:72:01:7f:ec:
                    ef:8f:27
                Exponent: 65537 (0x10001)
        X509v3 extensions:
            X509v3 Basic Constraints: 
                CA:FALSE
            X509v3 Key Usage: 
                Digital Signature, Non Repudiation, Key Encipherment, Data Encipherment, Key Agreement
            Netscape Comment: 
                OpenSSL Generated Certificate
            X509v3 Subject Key Identifier: 
                CA:B0:5F:0A:9D:D7:1B:27:DF:CF:E3:0A:73:64:3E:22:32:53:C2:31
            X509v3 Authority Key Identifier: 
                95:44:68:92:37:9C:A8:60:D5:DF:17:40:74:78:0A:CA:D7:CF:E5:C7
            X509v3 CRL Distribution Points: 
                Full Name:
                  URI:http://192.168.21.89/rootcrl.pem
    Signature Algorithm: sha1WithRSAEncryption
    Signature Value:
        1e:e3:26:e8:3b:cd:59:f0:82:e2:a6:8f:73:d1:77:7a:27:03:
        3d:54:6c:64:68:27:9d:1e:33:48:ba:f3:10:61:fa:01:4b:9b:
        23:75:df:94:1b:d6:41:51:2a:39:dc:8c:d6:e6:ab:d7:c0:f1:
        8e:ad:1e:37:57:24:d0:33:7e:04:55:68:4a:78:42:47:27:f7:
        69:e8:fb:b3:6a:65:68:30:15:9e:00:ce:9d:1b:1a:23:a8:16:
        95:31:77:5a:44:4d:11:a8:47:2c:b6:cc:5e:83:17:75:a2:28:
        15:0c:03:59:b1:05:e0:b9:fe:c2:a3:b3:a5:ee:aa:c1:fc:b5:
        6d:f3:cb:3d:b7:20:ca:aa:08:c5:5e:ee:91:5b:58:f6:83:3d:
        d6:88:a6:eb:05:99:92:c0:5e:56:a1:73:75:a4:cd:88:89:46:
        e3:c7:7b:40:33:b3:c5:96:cf:21:71:5a:20:a8:98:6c:ad:23:
        af:b8:59:09:fd:c6:52:b7:a8:af:e2:da:5b:10:27:06:90:4f:
        f7:6d:63:ce:9c:75:e5:07:0d:ce:a7:e9:48:17:12:db:69:1c:
        19:0f:4f:75:a0:b5:32:ae:1c:36:7d:a2:d9:c3:97:4b:6b:24:
        10:73:55:43:5e:d6:06:60:cb:60:0b:d2:b6:d3:4d:65:f8:40:
        cb:c6:09:7e:92:1b:99:25:32:0e:90:40:3e:cf:ea:b1:92:c4:
        d0:87:8f:f6:f4:80:88:4c:d5:57:f0:ed:7b:da:2b:4c:0f:74:
        b9:f6:8d:cd:5d:5e:6b:f1:24:a4:ae:80:e9:ea:2e:b5:b1:1b:
        e6:9e:c2:f7:8e:28:52:c7:ba:49:79:56:49:bd:88:c0:4f:4d:
        3b:1c:24:3f:38:b4:f1:71:13:0a:f1:37:01:d7:13:ff:3a:d7:
        9b:92:c7:23:68:d1:ae:ae:94:f2:c4:cc:04:94:77:a1:0d:ce:
        cd:a5:9b:ac:76:0d:97:53:e6:2f:84:93:2d:7f:59:fc:fe:0b:
        d1:76:73:82:18:c0:2e:22:0c:99:33:11:c3:d1:ee:f5:48:cb:
        12:67:8c:40:76:f3:ac:4a:96:89:a9:2e:d9:6b:46:6b:d3:6b:
        fa:62:ac:66:61:35:a0:40:81:60:08:bf:e6:a1:e3:63:7a:a1:
        6c:e5:47:a1:a4:37:d9:36:e6:77:46:6d:34:be:d4:1c:b4:25:
        69:e4:02:06:62:ef:50:0a:d7:fe:a2:f4:6a:4f:0c:c1:2f:75:
        fd:67:02:3b:a6:b4:ed:7f:6a:0f:b1:e4:1b:51:9c:be:8a:d3:
        2f:9f:c1:00:82:2d:41:7c:20:00:6a:f1:e6:39:66:20:bd:0e:
        3a:45:e5:fd:d8:98:d1:a7
-----BEGIN CERTIFICATE-----
MIIGdzCCBF+gAwIBAgIBCzANBgkqhkiG9w0BAQUFADCBvTELMAkGA1UEBhMCQkEx
CzAJBgNVBAgTAlJTMRMwEQYDVQQHEwpCYW5qYSBMdWthMSEwHwYDVQQKExhFbGVr
dHJvdGVobmlja2kgZmFrdWx0ZXQxIjAgBgNVBAoTGVVuaXZlcnppdGV0IHUgQmFu
am9qIEx1Y2kxDDAKBgNVBAsTA0VURjELMAkGA1UEAxMCQ0ExGjAYBgkqhkiG9w0B
CQEWC2NhQG1haWwuY29tMQ4wDAYDVQQMEwVQcm9mLjAeFw0yNTAzMDkxNzI1NTNa
Fw0yNjAzMDkxNzI1NTNaMIGAMQswCQYDVQQGEwJCQTELMAkGA1UECBMCUlMxITAf
BgNVBAoTGEVsZWt0cm90ZWhuaWNraSBmYWt1bHRldDEMMAoGA1UECxMDRVRGMREw
DwYDVQQDEwhjbGllbnQxMTEgMB4GCSqGSIb3DQEJARYRY2xpZW50MTFAbWFpbC5j
b20wggIiMA0GCSqGSIb3DQEBAQUAA4ICDwAwggIKAoICAQC+HnG1e91Saqcrf3d6
hod/gucY3Get0aCpdBPRZJJee0hFMltYqyMztt1785s++Plo1TLyZCvYFtEjdw1n
WOnD2So3uKLnELdbWEQTftFcjLDxfMLOD110wLHjDYO/Qj/kUW3J4wo+5Tzu3ElK
s8yAnOq9bFqeZodObZ/h8yu2MVz4CsuufQ6zW4cTA/73I+jKg77isbxc/hR6uK1F
FcaUWS8HgwPTgHUmOfshvfKQER/WwF3BfcATSfGdxEYG+4X/iugfnkO6kNQjwKqF
mVn75olGr3XhIjdsBo8cPPZJBfy45EgjC8R2KkYcyqzKkjDFJwNeHyUSyfDdGJ9C
MJ32bQNx48pxOrs8ps/9peLNmHGAzq7ce82+xyzj4Vg8GfW8Nam7Vw3ZFexeMQGX
zC9HHiB8eSXdoCNg+vXh25juwQ6+NWOUqMCYQ+p01eW6Hz+lLj9uU1a6ORgfqkV8
9cZ0JlLrbueuTjeuBjwmtX68K/DefwNsXpVqj8JdLseimWmhs4opY6Nm4fJvE9rZ
azvJJcWnUtUO+HH/oWW1P43JSgkpY3tAbuLwoOSFEThd5CGWP4IMoa1wHIlbEh5P
B4ajWhsItZcxLgqPwDpPiEz/7XuHiKMGLvhWpS6qNfgNvrFY4XYeVWTNpcYslWcN
CR8b+bciu8LErN+/cgF/7O+PJwIDAQABo4G8MIG5MAkGA1UdEwQCMAAwCwYDVR0P
BAQDAgP4MCwGCWCGSAGG+EIBDQQfFh1PcGVuU1NMIEdlbmVyYXRlZCBDZXJ0aWZp
Y2F0ZTAdBgNVHQ4EFgQUyrBfCp3XGyffz+MKc2Q+IjJTwjEwHwYDVR0jBBgwFoAU
lURokjecqGDV3xdAdHgKytfP5ccwMQYDVR0fBCowKDAmoCSgIoYgaHR0cDovLzE5
Mi4xNjguMjEuODkvcm9vdGNybC5wZW0wDQYJKoZIhvcNAQEFBQADggIBAB7jJug7
zVnwguKmj3PRd3onAz1UbGRoJ50eM0i68xBh+gFLmyN135Qb1kFRKjncjNbmq9fA
8Y6tHjdXJNAzfgRVaEp4Qkcn92no+7NqZWgwFZ4Azp0bGiOoFpUxd1pETRGoRyy2
zF6DF3WiKBUMA1mxBeC5/sKjs6XuqsH8tW3zyz23IMqqCMVe7pFbWPaDPdaIpusF
mZLAXlahc3WkzYiJRuPHe0Azs8WWzyFxWiComGytI6+4WQn9xlK3qK/i2lsQJwaQ
T/dtY86cdeUHDc6n6UgXEttpHBkPT3WgtTKuHDZ9otnDl0trJBBzVUNe1gZgy2AL
0rbTTWX4QMvGCX6SG5klMg6QQD7P6rGSxNCHj/b0gIhM1Vfw7XvaK0wPdLn2jc1d
XmvxJKSugOnqLrWxG+aewveOKFLHukl5Vkm9iMBPTTscJD84tPFxEwrxNwHXE/86
15uSxyNo0a6ulPLEzASUd6ENzs2lm6x2DZdT5i+Eky1/Wfz+C9F2c4IYwC4iDJkz
EcPR7vVIyxJnjEB286xKlompLtlrRmvTa/pirGZhNaBAgWAIv+ah42N6oWzlR6Gk
N9k25ndGbTS+1By0JWnkAgZi71AK1/6i9GpPDMEvdf1nAjumtO1/ag+x5BtRnL6K
0y+fwQCCLUF8IABq8eY5ZiC9DjpF5f3YmNGn
-----END CERTIFICATE-----
