Certificate:
    Data:
        Version: 3 (0x2)
        Serial Number: 4 (0x4)
        Signature Algorithm: sha1WithRSAEncryption
        Issuer: C=BA, ST=RS, L=Banja Luka, O=Elektrotehnicki fakultet, O=Univerzitet u Banjoj Luci, OU=ETF, CN=CA/emailAddress=ca@mail.com/title=Prof.
        Validity
            Not Before: Mar  9 17:19:17 2025 GMT
            Not After : Mar  9 17:19:17 2026 GMT
        Subject: C=BA, ST=RS, O=Elektrotehnicki fakultet, OU=ETF, CN=client4/emailAddress=client4@mail.com
        Subject Public Key Info:
            Public Key Algorithm: rsaEncryption
                Public-Key: (4096 bit)
                Modulus:
                    00:98:46:34:1f:00:7f:84:89:78:86:46:0b:a8:b3:
                    c1:b2:12:90:b2:2a:3c:78:82:25:00:01:09:53:7e:
                    38:ae:90:21:f4:f7:e3:d6:d8:fc:e4:60:08:05:14:
                    02:0c:52:50:06:06:e7:73:f9:ea:9d:eb:04:d3:46:
                    b7:2f:19:a1:87:45:28:e1:56:94:37:30:48:6a:b7:
                    bc:d6:a7:a2:45:cb:09:92:dd:77:71:b2:fd:97:8b:
                    86:79:09:63:e9:06:c1:88:4e:b4:5c:02:4c:8f:8d:
                    c0:3a:18:48:ca:c7:4c:7d:42:fb:d1:4e:a5:f5:e4:
                    66:02:23:5a:7a:da:1e:1b:bd:b0:b2:f8:04:d2:59:
                    26:f7:af:ca:e9:b3:86:bf:e9:94:34:89:73:d5:51:
                    48:a5:dc:ae:7a:97:d7:b6:a4:a5:64:98:ed:e2:27:
                    5d:8e:ef:5c:04:8d:76:7c:f5:af:3e:e2:02:11:7d:
                    ff:88:78:e1:3a:0a:93:26:0a:c9:4a:59:15:a5:bc:
                    9c:28:ac:50:84:7c:1b:0e:86:0b:55:97:78:3d:f0:
                    f8:b9:14:30:dd:26:a8:e3:7d:7f:93:2c:4c:cf:a7:
                    d4:81:4c:e1:64:1b:3b:96:c7:2f:aa:4a:10:be:68:
                    12:1c:98:c2:b6:92:e2:ee:3b:6f:ab:d1:e8:32:fc:
                    a2:6e:8f:62:0d:92:91:a6:54:d0:c7:c0:01:4b:3d:
                    ad:c9:0e:4d:7e:a0:f3:f1:c4:80:af:f1:62:8b:57:
                    45:d8:02:2b:9e:a0:8f:a7:a8:7a:11:a0:45:23:7c:
                    df:5f:55:30:bb:4d:86:13:7d:9a:d8:35:81:42:7b:
                    bc:66:f6:a4:f1:9a:39:4d:0e:f7:e2:b9:92:78:ee:
                    8c:71:34:db:9a:c1:8b:08:a2:cc:a9:f2:49:bb:e6:
                    32:b3:a1:c8:15:46:f1:56:cb:81:27:ef:ca:0e:2f:
                    d6:6a:56:50:7a:fb:2e:52:33:7f:2b:51:02:a0:37:
                    e8:06:25:7e:85:a9:a6:f1:98:a0:fe:83:14:52:d4:
                    1e:3b:b4:fb:6d:22:5b:61:59:8a:5b:33:79:66:68:
                    56:a6:cf:e9:71:32:a4:ea:32:8e:c5:26:5e:88:19:
                    37:b7:e0:0e:76:91:cd:aa:d0:57:ab:42:3a:04:80:
                    f1:0a:28:18:52:0d:fd:be:ee:33:e5:8a:21:74:00:
                    12:a7:1f:45:1c:99:5b:c0:b4:77:72:00:8e:ab:15:
                    d7:38:d3:0a:e7:47:4c:72:db:6d:f7:64:ca:95:56:
                    8d:81:9a:0f:68:c6:af:35:36:cf:96:39:71:15:f9:
                    f3:54:5f:bd:06:ec:9a:78:c9:32:59:98:11:74:5f:
                    e8:50:f7
                Exponent: 65537 (0x10001)
        X509v3 extensions:
            X509v3 Basic Constraints: 
                CA:FALSE
            X509v3 Key Usage: 
                Digital Signature, Non Repudiation, Key Encipherment, Data Encipherment, Key Agreement
            Netscape Comment: 
                OpenSSL Generated Certificate
            X509v3 Subject Key Identifier: 
                F5:FA:54:B8:E2:EF:E7:98:86:78:BF:03:FB:EF:E9:6D:54:13:06:D5
            X509v3 Authority Key Identifier: 
                95:44:68:92:37:9C:A8:60:D5:DF:17:40:74:78:0A:CA:D7:CF:E5:C7
            X509v3 CRL Distribution Points: 
                Full Name:
                  URI:http://192.168.21.89/rootcrl.pem
    Signature Algorithm: sha1WithRSAEncryption
    Signature Value:
        ae:cc:69:b5:62:f6:16:94:06:1d:66:bc:f4:53:1a:ed:3a:bf:
        b7:d0:26:78:c5:c8:27:a5:0e:f4:c6:4e:1e:c3:4f:22:50:f9:
        f7:a4:4a:38:03:0c:a6:bc:6d:4b:59:ba:7f:57:de:09:70:88:
        69:d7:ee:c8:23:be:a5:fb:17:7c:fa:4d:f9:31:f0:49:62:e9:
        b5:ff:ac:4c:bb:c5:34:5e:61:b8:f2:d6:56:41:34:af:1f:8c:
        96:63:33:36:b0:5d:ae:c9:ff:08:15:94:7a:b7:24:55:3e:4f:
        6f:e6:74:52:37:72:c7:fd:c7:15:f6:c3:68:af:42:06:e8:90:
        6b:db:c8:5e:0c:72:af:b7:57:e1:6c:3e:95:2f:36:51:91:38:
        75:ad:4a:21:a7:ce:a7:2f:2e:79:6c:84:38:00:6f:11:b0:d2:
        05:d9:ec:b8:b5:c6:dd:f5:28:4c:22:c1:db:16:ba:e6:d4:dd:
        8b:ed:79:3d:4b:12:00:d1:ce:3f:d7:79:c5:2a:c0:c4:46:d4:
        63:79:fe:25:45:09:20:72:9a:15:ed:b1:ee:55:d7:b7:bc:b3:
        11:66:5b:7d:de:af:fb:77:e5:05:ca:71:ab:24:f9:fa:63:9d:
        7b:fb:75:87:c3:35:db:9f:59:6f:e4:50:15:39:27:36:9c:b4:
        4c:22:8a:b0:bc:39:bd:29:79:25:fc:4c:d3:cd:47:7b:c3:e9:
        b8:f4:2b:7f:b9:b7:e2:ea:00:60:3d:f2:ca:15:8b:05:65:17:
        06:ec:35:c7:90:3f:d7:72:7d:6d:0e:52:e2:88:9d:68:71:52:
        c9:4b:5b:af:55:36:98:eb:e0:78:95:a6:b8:e5:d7:a5:b2:e9:
        12:46:62:3a:5d:68:38:6c:e5:eb:68:a7:6c:27:e0:76:8f:3a:
        6b:8a:f5:f0:aa:d6:43:cc:55:96:21:fb:ca:90:ea:06:29:69:
        58:f6:69:80:aa:9a:2e:d2:ec:e3:b9:c8:2f:2a:99:de:f2:fe:
        a6:89:09:bd:81:b2:e6:53:0b:d8:e1:54:59:c3:46:f7:8c:01:
        ce:8d:1e:00:af:3a:63:39:e5:cf:b8:a9:ce:2c:fb:71:6b:00:
        21:b0:bf:6f:4e:17:df:6d:8a:20:0d:68:42:ac:ee:06:ae:e1:
        03:f5:6f:c9:a8:bf:c4:30:78:bc:b6:3a:d9:11:ec:47:5a:45:
        eb:4a:ff:d3:51:53:58:81:c8:c5:45:74:2f:36:f8:4b:d0:13:
        06:f2:01:f7:fc:b2:be:bb:a5:cc:f1:f9:b0:bf:23:13:9b:91:
        2e:91:a3:dd:17:e9:4b:75:44:58:6e:32:c9:26:8b:e2:2b:8e:
        9f:82:b8:77:20:b5:9e:f7
-----BEGIN CERTIFICATE-----
MIIGdDCCBFygAwIBAgIBBDANBgkqhkiG9w0BAQUFADCBvTELMAkGA1UEBhMCQkEx
CzAJBgNVBAgTAlJTMRMwEQYDVQQHEwpCYW5qYSBMdWthMSEwHwYDVQQKExhFbGVr
dHJvdGVobmlja2kgZmFrdWx0ZXQxIjAgBgNVBAoTGVVuaXZlcnppdGV0IHUgQmFu
am9qIEx1Y2kxDDAKBgNVBAsTA0VURjELMAkGA1UEAxMCQ0ExGjAYBgkqhkiG9w0B
CQEWC2NhQG1haWwuY29tMQ4wDAYDVQQMEwVQcm9mLjAeFw0yNTAzMDkxNzE5MTda
Fw0yNjAzMDkxNzE5MTdaMH4xCzAJBgNVBAYTAkJBMQswCQYDVQQIEwJSUzEhMB8G
A1UEChMYRWxla3Ryb3RlaG5pY2tpIGZha3VsdGV0MQwwCgYDVQQLEwNFVEYxEDAO
BgNVBAMTB2NsaWVudDQxHzAdBgkqhkiG9w0BCQEWEGNsaWVudDRAbWFpbC5jb20w
ggIiMA0GCSqGSIb3DQEBAQUAA4ICDwAwggIKAoICAQCYRjQfAH+EiXiGRguos8Gy
EpCyKjx4giUAAQlTfjiukCH09+PW2PzkYAgFFAIMUlAGBudz+eqd6wTTRrcvGaGH
RSjhVpQ3MEhqt7zWp6JFywmS3Xdxsv2Xi4Z5CWPpBsGITrRcAkyPjcA6GEjKx0x9
QvvRTqX15GYCI1p62h4bvbCy+ATSWSb3r8rps4a/6ZQ0iXPVUUil3K56l9e2pKVk
mO3iJ12O71wEjXZ89a8+4gIRff+IeOE6CpMmCslKWRWlvJworFCEfBsOhgtVl3g9
8Pi5FDDdJqjjfX+TLEzPp9SBTOFkGzuWxy+qShC+aBIcmMK2kuLuO2+r0egy/KJu
j2INkpGmVNDHwAFLPa3JDk1+oPPxxICv8WKLV0XYAiueoI+nqHoRoEUjfN9fVTC7
TYYTfZrYNYFCe7xm9qTxmjlNDvfiuZJ47oxxNNuawYsIosyp8km75jKzocgVRvFW
y4En78oOL9ZqVlB6+y5SM38rUQKgN+gGJX6FqabxmKD+gxRS1B47tPttIlthWYpb
M3lmaFamz+lxMqTqMo7FJl6IGTe34A52kc2q0FerQjoEgPEKKBhSDf2+7jPliiF0
ABKnH0UcmVvAtHdyAI6rFdc40wrnR0xy2233ZMqVVo2Bmg9oxq81Ns+WOXEV+fNU
X70G7Jp4yTJZmBF0X+hQ9wIDAQABo4G8MIG5MAkGA1UdEwQCMAAwCwYDVR0PBAQD
AgP4MCwGCWCGSAGG+EIBDQQfFh1PcGVuU1NMIEdlbmVyYXRlZCBDZXJ0aWZpY2F0
ZTAdBgNVHQ4EFgQU9fpUuOLv55iGeL8D++/pbVQTBtUwHwYDVR0jBBgwFoAUlURo
kjecqGDV3xdAdHgKytfP5ccwMQYDVR0fBCowKDAmoCSgIoYgaHR0cDovLzE5Mi4x
NjguMjEuODkvcm9vdGNybC5wZW0wDQYJKoZIhvcNAQEFBQADggIBAK7MabVi9haU
Bh1mvPRTGu06v7fQJnjFyCelDvTGTh7DTyJQ+fekSjgDDKa8bUtZun9X3glwiGnX
7sgjvqX7F3z6Tfkx8Eli6bX/rEy7xTReYbjy1lZBNK8fjJZjMzawXa7J/wgVlHq3
JFU+T2/mdFI3csf9xxX2w2ivQgbokGvbyF4Mcq+3V+FsPpUvNlGROHWtSiGnzqcv
LnlshDgAbxGw0gXZ7Li1xt31KEwiwdsWuubU3YvteT1LEgDRzj/XecUqwMRG1GN5
/iVFCSBymhXtse5V17e8sxFmW33er/t35QXKcask+fpjnXv7dYfDNdufWW/kUBU5
JzactEwiirC8Ob0peSX8TNPNR3vD6bj0K3+5t+LqAGA98soViwVlFwbsNceQP9dy
fW0OUuKInWhxUslLW69VNpjr4HiVprjl16Wy6RJGYjpdaDhs5etop2wn4HaPOmuK
9fCq1kPMVZYh+8qQ6gYpaVj2aYCqmi7S7OO5yC8qmd7y/qaJCb2BsuZTC9jhVFnD
RveMAc6NHgCvOmM55c+4qc4s+3FrACGwv29OF99tiiANaEKs7gau4QP1b8mov8Qw
eLy2OtkR7EdaRetK/9NRU1iByMVFdC82+EvQEwbyAff8sr67pczx+bC/IxObkS6R
o90X6Ut1RFhuMskmi+Irjp+CuHcgtZ73
-----END CERTIFICATE-----
